
ProjektUrsCpp.elf:     file format elf32-avr

Sections:
Idx Name          Size      VMA       LMA       File off  Algn
  0 .text         00003be8  00000000  00000000  00000094  2**1
                  CONTENTS, ALLOC, LOAD, READONLY, CODE
  1 .data         000002de  00800060  00003be8  00003c7c  2**0
                  CONTENTS, ALLOC, LOAD, DATA
  2 .bss          00000083  0080033e  0080033e  00003f5a  2**0
                  ALLOC
  3 .comment      00000030  00000000  00000000  00003f5a  2**0
                  CONTENTS, READONLY
  4 .note.gnu.avr.deviceinfo 0000003c  00000000  00000000  00003f8c  2**2
                  CONTENTS, READONLY
  5 .debug_aranges 00000290  00000000  00000000  00003fc8  2**3
                  CONTENTS, READONLY, DEBUGGING
  6 .debug_info   00006875  00000000  00000000  00004258  2**0
                  CONTENTS, READONLY, DEBUGGING
  7 .debug_abbrev 00000d34  00000000  00000000  0000aacd  2**0
                  CONTENTS, READONLY, DEBUGGING
  8 .debug_line   00001f99  00000000  00000000  0000b801  2**0
                  CONTENTS, READONLY, DEBUGGING
  9 .debug_frame  00000a44  00000000  00000000  0000d79c  2**2
                  CONTENTS, READONLY, DEBUGGING
 10 .debug_str    00000e08  00000000  00000000  0000e1e0  2**0
                  CONTENTS, READONLY, DEBUGGING
 11 .debug_loc    00004299  00000000  00000000  0000efe8  2**0
                  CONTENTS, READONLY, DEBUGGING
 12 .debug_ranges 000001f8  00000000  00000000  00013281  2**0
                  CONTENTS, READONLY, DEBUGGING

Disassembly of section .text:

00000000 <__vectors>:
       0:	0c 94 68 08 	jmp	0x10d0	; 0x10d0 <__ctors_end>
       4:	0c 94 90 08 	jmp	0x1120	; 0x1120 <__bad_interrupt>
       8:	0c 94 90 08 	jmp	0x1120	; 0x1120 <__bad_interrupt>
       c:	0c 94 90 08 	jmp	0x1120	; 0x1120 <__bad_interrupt>
      10:	0c 94 90 08 	jmp	0x1120	; 0x1120 <__bad_interrupt>
      14:	0c 94 90 08 	jmp	0x1120	; 0x1120 <__bad_interrupt>
      18:	0c 94 90 08 	jmp	0x1120	; 0x1120 <__bad_interrupt>
      1c:	0c 94 90 08 	jmp	0x1120	; 0x1120 <__bad_interrupt>
      20:	0c 94 90 08 	jmp	0x1120	; 0x1120 <__bad_interrupt>
      24:	0c 94 90 08 	jmp	0x1120	; 0x1120 <__bad_interrupt>
      28:	0c 94 90 08 	jmp	0x1120	; 0x1120 <__bad_interrupt>
      2c:	0c 94 90 08 	jmp	0x1120	; 0x1120 <__bad_interrupt>
      30:	0c 94 90 08 	jmp	0x1120	; 0x1120 <__bad_interrupt>
      34:	0c 94 90 08 	jmp	0x1120	; 0x1120 <__bad_interrupt>
      38:	0c 94 90 08 	jmp	0x1120	; 0x1120 <__bad_interrupt>
      3c:	0c 94 90 08 	jmp	0x1120	; 0x1120 <__bad_interrupt>
      40:	0c 94 90 08 	jmp	0x1120	; 0x1120 <__bad_interrupt>
      44:	0c 94 90 08 	jmp	0x1120	; 0x1120 <__bad_interrupt>
      48:	0c 94 90 08 	jmp	0x1120	; 0x1120 <__bad_interrupt>
      4c:	0c 94 49 10 	jmp	0x2092	; 0x2092 <__vector_19>
      50:	0c 94 90 08 	jmp	0x1120	; 0x1120 <__bad_interrupt>
      54:	05 a8       	ldd	r0, Z+53	; 0x35
      56:	4c cd       	rjmp	.-1384   	; 0xfffffaf0 <__eeprom_end+0xff7efaf0>
      58:	b2 d4       	rcall	.+2404   	; 0x9be <__stack+0x55f>
      5a:	4e b9       	out	0x0e, r20	; 14
      5c:	38 36       	cpi	r19, 0x68	; 104
      5e:	a9 02       	muls	r26, r25
      60:	0c 50       	subi	r16, 0x0C	; 12
      62:	b9 91       	ld	r27, Y+
      64:	86 88       	ldd	r8, Z+22	; 0x16
      66:	08 3c       	cpi	r16, 0xC8	; 200
      68:	a6 aa       	std	Z+54, r10	; 0x36
      6a:	aa 2a       	or	r10, r26
      6c:	be 00       	.word	0x00be	; ????
      6e:	00 00       	nop
      70:	80 3f       	cpi	r24, 0xF0	; 240

00000072 <BigFont>:
      72:	10 10 20 5f 00 00 00 00 00 00 00 00 00 00 00 00     .. _............
	...
      9a:	07 00 0f 80 0f 80 0f 80 0f 80 0f 80 07 00 07 00     ................
      aa:	00 00 00 00 07 00 07 00 07 00 00 00 00 00 0e 38     ...............8
      ba:	0e 38 0e 38 0e 38 06 30 00 00 00 00 00 00 00 00     .8.8.8.0........
	...
      d6:	00 00 0c 30 0c 30 0c 30 7f fe 7f fe 0c 30 0c 30     ...0.0.0.....0.0
      e6:	0c 30 0c 30 7f fe 7f fe 0c 30 0c 30 0c 30 00 00     .0.0.....0.0.0..
      f6:	00 00 02 40 02 40 0f f8 1f f8 1a 40 1a 40 1f f0     ...@.@.....@.@..
     106:	0f f8 02 58 02 58 1f f8 1f f0 02 40 02 40 00 00     ...X.X.....@.@..
     116:	00 00 00 00 00 00 0e 10 0e 30 0e 70 00 e0 01 c0     .........0.p....
     126:	03 80 07 00 0e 70 0c 70 08 70 00 00 00 00 00 00     .....p.p.p......
     136:	00 00 00 00 0f 00 19 80 19 80 19 80 0f 00 0f 08     ................
     146:	0f 98 19 f8 18 f0 18 e0 19 f0 0f 98 00 00 00 00     ................
     156:	00 00 00 00 07 00 07 00 07 00 0e 00 00 00 00 00     ................
	...
     17a:	00 f0 01 c0 03 80 07 00 0e 00 0e 00 0e 00 0e 00     ................
     18a:	07 00 03 80 01 c0 00 f0 00 00 00 00 00 00 00 00     ................
     19a:	0f 00 03 80 01 c0 00 e0 00 70 00 70 00 70 00 70     .........p.p.p.p
     1aa:	00 e0 01 c0 03 80 0f 00 00 00 00 00 00 00 00 00     ................
     1ba:	01 80 11 88 09 90 07 e0 07 e0 3f fc 3f fc 07 e0     ..........?.?...
     1ca:	07 e0 09 90 11 88 01 80 00 00 00 00 00 00 00 00     ................
     1da:	00 00 00 00 01 80 01 80 01 80 0f f0 0f f0 01 80     ................
     1ea:	01 80 01 80 00 00 00 00 00 00 00 00 00 00 00 00     ................
	...
     20a:	00 00 07 00 07 00 07 00 0e 00 00 00 00 00 00 00     ................
	...
     222:	00 00 1f f8 1f f8 00 00 00 00 00 00 00 00 00 00     ................
	...
     24a:	00 00 07 00 07 00 07 00 00 00 00 00 00 00 00 00     ................
     25a:	00 02 00 06 00 0e 00 1c 00 38 00 70 00 e0 01 c0     .........8.p....
     26a:	03 80 07 00 0e 00 1c 00 00 00 00 00 00 00 00 00     ................
     27a:	0f f0 1c 38 1c 78 1c f8 1c f8 1d b8 1d b8 1f 38     ...8.x.........8
     28a:	1f 38 1e 38 1c 38 0f f0 00 00 00 00 00 00 00 00     .8.8.8..........
     29a:	01 80 01 80 03 80 1f 80 1f 80 03 80 03 80 03 80     ................
     2aa:	03 80 03 80 03 80 1f f0 00 00 00 00 00 00 00 00     ................
     2ba:	0f e0 1c 70 1c 38 00 38 00 70 00 e0 01 c0 03 80     ...p.8.8.p......
     2ca:	07 00 0e 38 1c 38 1f f8 00 00 00 00 00 00 00 00     ...8.8..........
     2da:	0f e0 1c 70 1c 38 00 38 00 70 03 c0 03 c0 00 70     ...p.8.8.p.....p
     2ea:	00 38 1c 38 1c 70 0f e0 00 00 00 00 00 00 00 00     .8.8.p..........
     2fa:	00 e0 01 e0 03 e0 06 e0 0c e0 18 e0 1f f8 1f f8     ................
     30a:	00 e0 00 e0 00 e0 03 f8 00 00 00 00 00 00 00 00     ................
     31a:	1f f8 1c 00 1c 00 1c 00 1c 00 1f e0 1f f0 00 78     ...............x
     32a:	00 38 1c 38 1c 70 0f e0 00 00 00 00 00 00 00 00     .8.8.p..........
     33a:	03 e0 07 00 0e 00 1c 00 1c 00 1f f0 1f f8 1c 38     ...............8
     34a:	1c 38 1c 38 1c 38 0f f0 00 00 00 00 00 00 00 00     .8.8.8..........
     35a:	1f fc 1c 1c 1c 1c 1c 1c 00 1c 00 38 00 70 00 e0     ...........8.p..
     36a:	01 c0 03 80 03 80 03 80 00 00 00 00 00 00 00 00     ................
     37a:	0f f0 1c 38 1c 38 1c 38 1f 38 07 e0 07 e0 1c f8     ...8.8.8.8......
     38a:	1c 38 1c 38 1c 38 0f f0 00 00 00 00 00 00 00 00     .8.8.8..........
     39a:	0f f0 1c 38 1c 38 1c 38 1c 38 1f f8 0f f8 00 38     ...8.8.8.8.....8
     3aa:	00 38 00 70 00 e0 07 c0 00 00 00 00 00 00 00 00     .8.p............
     3ba:	00 00 00 00 03 80 03 80 03 80 00 00 00 00 03 80     ................
     3ca:	03 80 03 80 00 00 00 00 00 00 00 00 00 00 00 00     ................
     3da:	00 00 00 00 03 80 03 80 03 80 00 00 00 00 03 80     ................
     3ea:	03 80 03 80 07 00 00 00 00 00 00 00 00 00 00 70     ...............p
     3fa:	00 e0 01 c0 03 80 07 00 0e 00 1c 00 1c 00 0e 00     ................
     40a:	07 00 03 80 01 c0 00 e0 00 70 00 00 00 00 00 00     .........p......
     41a:	00 00 00 00 00 00 3f fc 3f fc 00 00 00 00 3f fc     ......?.?.....?.
     42a:	3f fc 00 00 00 00 00 00 00 00 00 00 00 00 1c 00     ?...............
     43a:	0e 00 07 00 03 80 01 c0 00 e0 00 70 00 70 00 e0     ...........p.p..
     44a:	01 c0 03 80 07 00 0e 00 1c 00 00 00 00 00 03 c0     ................
     45a:	0f f0 1e 78 18 38 00 38 00 70 00 e0 01 c0 01 c0     ...x.8.8.p......
     46a:	00 00 00 00 01 c0 01 c0 01 c0 00 00 00 00 0f f8     ................
     47a:	1c 1c 1c 1c 1c 1c 1c 1c 1c fc 1c fc 1c fc 1c fc     ................
     48a:	1c 00 1c 00 1c 00 1f f0 07 f8 00 00 00 00 00 00     ................
     49a:	03 c0 07 e0 0e 70 1c 38 1c 38 1c 38 1c 38 1f f8     .....p.8.8.8.8..
     4aa:	1c 38 1c 38 1c 38 1c 38 00 00 00 00 00 00 00 00     .8.8.8.8........
     4ba:	1f f0 0e 38 0e 38 0e 38 0e 38 0f f0 0f f0 0e 38     ...8.8.8.8.....8
     4ca:	0e 38 0e 38 0e 38 1f f0 00 00 00 00 00 00 00 00     .8.8.8..........
     4da:	07 f0 0e 38 1c 38 1c 00 1c 00 1c 00 1c 00 1c 00     ...8.8..........
     4ea:	1c 00 1c 38 0e 38 07 f0 00 00 00 00 00 00 00 00     ...8.8..........
     4fa:	1f e0 0e 70 0e 38 0e 38 0e 38 0e 38 0e 38 0e 38     ...p.8.8.8.8.8.8
     50a:	0e 38 0e 38 0e 70 1f e0 00 00 00 00 00 00 00 00     .8.8.p..........
     51a:	1f f8 0e 18 0e 08 0e 00 0e 30 0f f0 0f f0 0e 30     .........0.....0
     52a:	0e 00 0e 08 0e 18 1f f8 00 00 00 00 00 00 00 00     ................
     53a:	1f f8 0e 18 0e 08 0e 00 0e 30 0f f0 0f f0 0e 30     .........0.....0
     54a:	0e 00 0e 00 0e 00 1f 00 00 00 00 00 00 00 00 00     ................
     55a:	07 f0 0e 38 1c 38 1c 38 1c 00 1c 00 1c 00 1c f8     ...8.8.8........
     56a:	1c 38 1c 38 0e 38 07 f8 00 00 00 00 00 00 00 00     .8.8.8..........
     57a:	1c 70 1c 70 1c 70 1c 70 1c 70 1f f0 1f f0 1c 70     .p.p.p.p.p.....p
     58a:	1c 70 1c 70 1c 70 1c 70 00 00 00 00 00 00 00 00     .p.p.p.p........
     59a:	0f e0 03 80 03 80 03 80 03 80 03 80 03 80 03 80     ................
     5aa:	03 80 03 80 03 80 0f e0 00 00 00 00 00 00 00 00     ................
     5ba:	01 fc 00 70 00 70 00 70 00 70 00 70 00 70 38 70     ...p.p.p.p.p.p8p
     5ca:	38 70 38 70 38 70 0f e0 00 00 00 00 00 00 00 00     8p8p8p..........
     5da:	1e 38 0e 38 0e 70 0e e0 0f c0 0f 80 0f 80 0f c0     .8.8.p..........
     5ea:	0e e0 0e 70 0e 38 1e 38 00 00 00 00 00 00 00 00     ...p.8.8........
     5fa:	1f 00 0e 00 0e 00 0e 00 0e 00 0e 00 0e 00 0e 00     ................
     60a:	0e 08 0e 18 0e 38 1f f8 00 00 00 00 00 00 00 00     .....8..........
     61a:	1c 1c 1e 3c 1f 7c 1f fc 1f fc 1d dc 1c 9c 1c 1c     ...<.|..........
     62a:	1c 1c 1c 1c 1c 1c 1c 1c 00 00 00 00 00 00 00 00     ................
     63a:	1c 1c 1c 1c 1e 1c 1f 1c 1f 9c 1d dc 1c fc 1c 7c     ...............|
     64a:	1c 3c 1c 1c 1c 1c 1c 1c 00 00 00 00 00 00 00 00     .<..............
     65a:	03 e0 07 f0 0e 38 1c 1c 1c 1c 1c 1c 1c 1c 1c 1c     .....8..........
     66a:	1c 1c 0e 38 07 f0 03 e0 00 00 00 00 00 00 00 00     ...8............
     67a:	1f f0 0e 38 0e 38 0e 38 0e 38 0f f0 0f f0 0e 00     ...8.8.8.8......
     68a:	0e 00 0e 00 0e 00 1f 00 00 00 00 00 00 00 00 00     ................
     69a:	03 e0 0f 78 0e 38 1c 1c 1c 1c 1c 1c 1c 1c 1c 7c     ...x.8.........|
     6aa:	1c fc 0f f8 0f f8 00 38 00 fc 00 00 00 00 00 00     .......8........
     6ba:	1f f0 0e 38 0e 38 0e 38 0e 38 0f f0 0f f0 0e 70     ...8.8.8.8.....p
     6ca:	0e 38 0e 38 0e 38 1e 38 00 00 00 00 00 00 00 00     .8.8.8.8........
     6da:	0f f0 1c 38 1c 38 1c 38 1c 00 0f e0 07 f0 00 38     ...8.8.8.......8
     6ea:	1c 38 1c 38 1c 38 0f f0 00 00 00 00 00 00 00 00     .8.8.8..........
     6fa:	1f fc 19 cc 11 c4 01 c0 01 c0 01 c0 01 c0 01 c0     ................
     70a:	01 c0 01 c0 01 c0 07 f0 00 00 00 00 00 00 00 00     ................
     71a:	1c 70 1c 70 1c 70 1c 70 1c 70 1c 70 1c 70 1c 70     .p.p.p.p.p.p.p.p
     72a:	1c 70 1c 70 1c 70 0f e0 00 00 00 00 00 00 00 00     .p.p.p..........
     73a:	1c 70 1c 70 1c 70 1c 70 1c 70 1c 70 1c 70 1c 70     .p.p.p.p.p.p.p.p
     74a:	1c 70 0e e0 07 c0 03 80 00 00 00 00 00 00 00 00     .p..............
     75a:	1c 1c 1c 1c 1c 1c 1c 1c 1c 1c 1c 9c 1c 9c 1c 9c     ................
     76a:	0f f8 0f f8 07 70 07 70 00 00 00 00 00 00 00 00     .....p.p........
     77a:	1c 70 1c 70 1c 70 0e e0 07 c0 03 80 03 80 07 c0     .p.p.p..........
     78a:	0e e0 1c 70 1c 70 1c 70 00 00 00 00 00 00 00 00     ...p.p.p........
     79a:	1c 70 1c 70 1c 70 1c 70 1c 70 0e e0 07 c0 03 80     .p.p.p.p.p......
     7aa:	03 80 03 80 03 80 0f e0 00 00 00 00 00 00 00 00     ................
     7ba:	1f f8 1c 38 18 38 10 70 00 e0 01 c0 03 80 07 00     ...8.8.p........
     7ca:	0e 08 1c 18 1c 38 1f f8 00 00 00 00 00 00 00 00     .....8..........
     7da:	07 f0 07 00 07 00 07 00 07 00 07 00 07 00 07 00     ................
     7ea:	07 00 07 00 07 00 07 f0 00 00 00 00 00 00 00 00     ................
     7fa:	10 00 18 00 1c 00 0e 00 07 00 03 80 01 c0 00 e0     ................
     80a:	00 70 00 38 00 1c 00 07 00 00 00 00 00 00 00 00     .p.8............
     81a:	07 f0 00 70 00 70 00 70 00 70 00 70 00 70 00 70     ...p.p.p.p.p.p.p
     82a:	00 70 00 70 00 70 07 f0 00 00 00 00 00 00 01 80     .p.p.p..........
     83a:	03 c0 07 e0 0e 70 1c 38 00 00 00 00 00 00 00 00     .....p.8........
	...
     872:	7f ff 7f ff 00 00 00 00 1c 00 1c 00 07 00 07 00     ................
	...
     8a2:	0f e0 00 70 00 70 0f f0 1c 70 1c 70 1c 70 0f d8     ...p.p...p.p.p..
	...
     8ba:	1e 00 0e 00 0e 00 0e 00 0f f0 0e 38 0e 38 0e 38     ...........8.8.8
     8ca:	0e 38 0e 38 0e 38 1b f0 00 00 00 00 00 00 00 00     .8.8.8..........
	...
     8e2:	0f e0 1c 70 1c 70 1c 00 1c 00 1c 70 1c 70 0f e0     ...p.p.....p.p..
	...
     8fa:	00 f8 00 70 00 70 00 70 0f f0 1c 70 1c 70 1c 70     ...p.p.p...p.p.p
     90a:	1c 70 1c 70 1c 70 0f d8 00 00 00 00 00 00 00 00     .p.p.p..........
	...
     922:	0f e0 1c 70 1c 70 1f f0 1c 00 1c 70 1c 70 0f e0     ...p.p.....p.p..
	...
     93a:	03 e0 07 70 07 70 07 00 07 00 1f e0 1f e0 07 00     ...p.p..........
     94a:	07 00 07 00 07 00 1f c0 00 00 00 00 00 00 00 00     ................
	...
     962:	0f d8 1c 70 1c 70 1c 70 1c 70 0f f0 07 f0 00 70     ...p.p.p.p.....p
     972:	1c 70 0f e0 00 00 00 00 1e 00 0e 00 0e 00 0e 00     .p..............
     982:	0e f0 0f 38 0f 38 0e 38 0e 38 0e 38 0e 38 1e 38     ...8.8.8.8.8.8.8
	...
     99a:	01 c0 01 c0 01 c0 00 00 0f c0 01 c0 01 c0 01 c0     ................
     9aa:	01 c0 01 c0 01 c0 0f f8 00 00 00 00 00 00 00 00     ................
     9ba:	00 70 00 70 00 70 00 00 03 f0 00 70 00 70 00 70     .p.p.p.....p.p.p
     9ca:	00 70 00 70 00 70 1c 70 0c f0 07 e0 00 00 00 00     .p.p.p.p........
     9da:	1e 00 0e 00 0e 00 0e 00 0e 38 0e 70 0e e0 0f c0     .........8.p....
     9ea:	0e e0 0e 70 0e 38 1e 38 00 00 00 00 00 00 00 00     ...p.8.8........
     9fa:	0f c0 01 c0 01 c0 01 c0 01 c0 01 c0 01 c0 01 c0     ................
     a0a:	01 c0 01 c0 01 c0 0f f8 00 00 00 00 00 00 00 00     ................
	...
     a22:	1f f8 1c 9c 1c 9c 1c 9c 1c 9c 1c 9c 1c 9c 1c 9c     ................
	...
     a42:	1f e0 1c 70 1c 70 1c 70 1c 70 1c 70 1c 70 1c 70     ...p.p.p.p.p.p.p
	...
     a62:	0f e0 1c 70 1c 70 1c 70 1c 70 1c 70 1c 70 0f e0     ...p.p.p.p.p.p..
	...
     a82:	1b f0 0e 38 0e 38 0e 38 0e 38 0e 38 0f f0 0e 00     ...8.8.8.8.8....
     a92:	0e 00 1f 00 00 00 00 00 00 00 00 00 00 00 00 00     ................
     aa2:	1f b0 38 e0 38 e0 38 e0 38 e0 38 e0 1f e0 00 e0     ..8.8.8.8.8.....
     ab2:	00 e0 01 f0 00 00 00 00 00 00 00 00 00 00 00 00     ................
     ac2:	1e f0 0f f8 0f 38 0e 00 0e 00 0e 00 0e 00 1f 00     .....8..........
	...
     ae2:	0f e0 1c 30 1c 30 0f 80 03 e0 18 70 18 70 0f e0     ...0.0.....p.p..
	...
     afa:	00 00 01 00 03 00 07 00 1f f0 07 00 07 00 07 00     ................
     b0a:	07 00 07 70 07 70 03 e0 00 00 00 00 00 00 00 00     ...p.p..........
	...
     b22:	1c 70 1c 70 1c 70 1c 70 1c 70 1c 70 1c 70 0f d8     .p.p.p.p.p.p.p..
	...
     b42:	1c 70 1c 70 1c 70 1c 70 1c 70 0e e0 07 c0 03 80     .p.p.p.p.p......
	...
     b62:	1c 1c 1c 1c 1c 1c 1c 9c 1c 9c 0f f8 07 70 07 70     .............p.p
	...
     b82:	1c e0 1c e0 0f c0 07 80 07 80 0f c0 1c e0 1c e0     ................
	...
     ba2:	0e 38 0e 38 0e 38 0e 38 0e 38 07 f0 03 e0 00 e0     .8.8.8.8.8......
     bb2:	01 c0 1f 80 00 00 00 00 00 00 00 00 00 00 00 00     ................
     bc2:	1f e0 18 e0 11 c0 03 80 07 00 0e 20 1c 60 1f e0     ........... .`..
	...
     bda:	01 f8 03 80 03 80 03 80 07 00 1c 00 1c 00 07 00     ................
     bea:	03 80 03 80 03 80 01 f8 00 00 00 00 00 00 01 c0     ................
     bfa:	01 c0 01 c0 01 c0 01 c0 01 c0 01 c0 01 c0 01 c0     ................
     c0a:	01 c0 01 c0 01 c0 01 c0 01 c0 00 00 00 00 00 00     ................
     c1a:	1f 80 01 c0 01 c0 01 c0 00 e0 00 38 00 38 00 e0     ...........8.8..
     c2a:	01 c0 01 c0 01 c0 1f 80 00 00 00 00 00 00 00 00     ................
     c3a:	1f 1c 3b 9c 39 dc 38 f8 00 00 00 00 00 00 00 00     ..;.9.8.........
	...

00000c56 <SmallFont>:
     c56:	08 0c 20 5f 00 00 00 00 00 00 00 00 00 00 00 00     .. _............
     c66:	00 00 20 20 20 20 20 20 00 20 00 00 00 28 50 50     ..      . ...(PP
	...
     c7e:	00 00 28 28 fc 28 50 fc 50 50 00 00 00 20 78 a8     ..((.(P.PP... x.
     c8e:	a0 60 30 28 a8 f0 20 00 00 00 48 a8 b0 50 28 34     .`0(.. ...H..P(4
     c9e:	54 48 00 00 00 00 20 50 50 78 a8 a8 90 6c 00 00     TH.... PPx...l..
     cae:	00 40 40 80 00 00 00 00 00 00 00 00 00 04 08 10     .@@.............
     cbe:	10 10 10 10 10 08 04 00 00 40 20 10 10 10 10 10     .........@ .....
     cce:	10 20 40 00 00 00 00 20 a8 70 70 a8 20 00 00 00     . @.... .pp. ...
     cde:	00 00 20 20 20 f8 20 20 20 00 00 00 00 00 00 00     ..   .   .......
     cee:	00 00 00 00 00 40 40 80 00 00 00 00 00 f8 00 00     .....@@.........
	...
     d0a:	00 40 00 00 00 08 10 10 10 20 20 40 40 40 80 00     .@.......  @@@..
     d1a:	00 00 70 88 88 88 88 88 88 70 00 00 00 00 20 60     ..p......p.... `
     d2a:	20 20 20 20 20 70 00 00 00 00 70 88 88 10 20 40          p....p... @
     d3a:	80 f8 00 00 00 00 70 88 08 30 08 08 88 70 00 00     ......p..0...p..
     d4a:	00 00 10 30 50 50 90 78 10 18 00 00 00 00 f8 80     ...0PP.x........
     d5a:	80 f0 08 08 88 70 00 00 00 00 70 90 80 f0 88 88     .....p....p.....
     d6a:	88 70 00 00 00 00 f8 90 10 20 20 20 20 20 00 00     .p.......     ..
     d7a:	00 00 70 88 88 70 88 88 88 70 00 00 00 00 70 88     ..p..p...p....p.
     d8a:	88 88 78 08 48 70 00 00 00 00 00 00 20 00 00 00     ..x.Hp...... ...
     d9a:	00 20 00 00 00 00 00 00 00 20 00 00 00 20 20 00     . ....... ...  .
     daa:	00 04 08 10 20 40 20 10 08 04 00 00 00 00 00 00     .... @ .........
     dba:	f8 00 00 f8 00 00 00 00 00 40 20 10 08 04 08 10     .........@ .....
     dca:	20 40 00 00 00 00 70 88 88 10 20 20 00 20 00 00      @....p...  . ..
     dda:	00 00 70 88 98 a8 a8 b8 80 78 00 00 00 00 20 20     ..p......x....  
     dea:	30 50 50 78 48 cc 00 00 00 00 f0 48 48 70 48 48     0PPxH......HHpHH
     dfa:	48 f0 00 00 00 00 78 88 80 80 80 80 88 70 00 00     H.....x......p..
     e0a:	00 00 f0 48 48 48 48 48 48 f0 00 00 00 00 f8 48     ...HHHHHH......H
     e1a:	50 70 50 40 48 f8 00 00 00 00 f8 48 50 70 50 40     PpP@H......HPpP@
     e2a:	40 e0 00 00 00 00 38 48 80 80 9c 88 48 30 00 00     @.....8H....H0..
     e3a:	00 00 cc 48 48 78 48 48 48 cc 00 00 00 00 f8 20     ...HHxHHH...... 
     e4a:	20 20 20 20 20 f8 00 00 00 00 7c 10 10 10 10 10          .....|.....
     e5a:	10 90 e0 00 00 00 ec 48 50 60 50 50 48 ec 00 00     .......HP`PPH...
     e6a:	00 00 e0 40 40 40 40 40 44 fc 00 00 00 00 d8 d8     ...@@@@@D.......
     e7a:	d8 d8 a8 a8 a8 a8 00 00 00 00 dc 48 68 68 58 58     ...........HhhXX
     e8a:	48 e8 00 00 00 00 70 88 88 88 88 88 88 70 00 00     H.....p......p..
     e9a:	00 00 f0 48 48 70 40 40 40 e0 00 00 00 00 70 88     ...HHp@@@.....p.
     eaa:	88 88 88 e8 98 70 18 00 00 00 f0 48 48 70 50 48     .....p.....HHpPH
     eba:	48 ec 00 00 00 00 78 88 80 60 10 08 88 f0 00 00     H.....x..`......
     eca:	00 00 f8 a8 20 20 20 20 20 70 00 00 00 00 cc 48     ....     p.....H
     eda:	48 48 48 48 48 30 00 00 00 00 cc 48 48 50 50 30     HHHHH0.....HHPP0
     eea:	20 20 00 00 00 00 a8 a8 a8 70 50 50 50 50 00 00       .......pPPPP..
     efa:	00 00 d8 50 50 20 20 50 50 d8 00 00 00 00 d8 50     ...PP  PP......P
     f0a:	50 20 20 20 20 70 00 00 00 00 f8 90 10 20 20 40     P    p.......  @
     f1a:	48 f8 00 00 00 38 20 20 20 20 20 20 20 20 38 00     H....8        8.
     f2a:	00 40 40 40 20 20 10 10 10 08 00 00 00 70 10 10     .@@@  .......p..
     f3a:	10 10 10 10 10 10 70 00 00 20 50 00 00 00 00 00     ......p.. P.....
	...
     f56:	00 00 00 fc 00 20 00 00 00 00 00 00 00 00 00 00     ..... ..........
     f66:	00 00 00 00 00 30 48 38 48 3c 00 00 00 00 c0 40     .....0H8H<.....@
     f76:	40 70 48 48 48 70 00 00 00 00 00 00 00 38 48 40     @pHHHp.......8H@
     f86:	40 38 00 00 00 00 18 08 08 38 48 48 48 3c 00 00     @8.......8HHH<..
     f96:	00 00 00 00 00 30 48 78 40 38 00 00 00 00 1c 20     .....0Hx@8..... 
     fa6:	20 78 20 20 20 78 00 00 00 00 00 00 00 3c 48 30      x   x.......<H0
     fb6:	40 78 44 38 00 00 c0 40 40 70 48 48 48 ec 00 00     @xD8...@@pHHH...
     fc6:	00 00 20 00 00 60 20 20 20 70 00 00 00 00 10 00     .. ..`   p......
     fd6:	00 30 10 10 10 10 10 e0 00 00 c0 40 40 5c 50 70     .0.........@@\Pp
     fe6:	48 ec 00 00 00 00 e0 20 20 20 20 20 20 f8 00 00     H......      ...
     ff6:	00 00 00 00 00 f0 a8 a8 a8 a8 00 00 00 00 00 00     ................
    1006:	00 f0 48 48 48 ec 00 00 00 00 00 00 00 30 48 48     ..HHH........0HH
    1016:	48 30 00 00 00 00 00 00 00 f0 48 48 48 70 40 e0     H0........HHHp@.
    1026:	00 00 00 00 00 38 48 48 48 38 08 1c 00 00 00 00     .....8HHH8......
    1036:	00 d8 60 40 40 e0 00 00 00 00 00 00 00 78 40 30     ..`@@........x@0
    1046:	08 78 00 00 00 00 00 20 20 70 20 20 20 18 00 00     .x.....  p   ...
    1056:	00 00 00 00 00 d8 48 48 48 3c 00 00 00 00 00 00     ......HHH<......
    1066:	00 ec 48 50 30 20 00 00 00 00 00 00 00 a8 a8 70     ..HP0 .........p
    1076:	50 50 00 00 00 00 00 00 00 d8 50 20 50 d8 00 00     PP........P P...
    1086:	00 00 00 00 00 ec 48 50 30 20 20 c0 00 00 00 00     ......HP0  .....
    1096:	00 78 10 20 20 78 00 00 00 18 10 10 10 20 10 10     .x.  x....... ..
    10a6:	10 10 18 00 10 10 10 10 10 10 10 10 10 10 10 10     ................
    10b6:	00 60 20 20 20 10 20 20 20 20 60 00 40 a4 18 00     .`   .    `.@...
	...

000010ce <__ctors_start>:
    10ce:	ce 11       	cpse	r28, r14

000010d0 <__ctors_end>:
    10d0:	11 24       	eor	r1, r1
    10d2:	1f be       	out	0x3f, r1	; 63
    10d4:	cf e5       	ldi	r28, 0x5F	; 95
    10d6:	d4 e0       	ldi	r29, 0x04	; 4
    10d8:	de bf       	out	0x3e, r29	; 62
    10da:	cd bf       	out	0x3d, r28	; 61

000010dc <__do_copy_data>:
    10dc:	13 e0       	ldi	r17, 0x03	; 3
    10de:	a0 e6       	ldi	r26, 0x60	; 96
    10e0:	b0 e0       	ldi	r27, 0x00	; 0
    10e2:	e8 ee       	ldi	r30, 0xE8	; 232
    10e4:	fb e3       	ldi	r31, 0x3B	; 59
    10e6:	02 c0       	rjmp	.+4      	; 0x10ec <__do_copy_data+0x10>
    10e8:	05 90       	lpm	r0, Z+
    10ea:	0d 92       	st	X+, r0
    10ec:	ae 33       	cpi	r26, 0x3E	; 62
    10ee:	b1 07       	cpc	r27, r17
    10f0:	d9 f7       	brne	.-10     	; 0x10e8 <__do_copy_data+0xc>

000010f2 <__do_clear_bss>:
    10f2:	23 e0       	ldi	r18, 0x03	; 3
    10f4:	ae e3       	ldi	r26, 0x3E	; 62
    10f6:	b3 e0       	ldi	r27, 0x03	; 3
    10f8:	01 c0       	rjmp	.+2      	; 0x10fc <.do_clear_bss_start>

000010fa <.do_clear_bss_loop>:
    10fa:	1d 92       	st	X+, r1

000010fc <.do_clear_bss_start>:
    10fc:	a1 3c       	cpi	r26, 0xC1	; 193
    10fe:	b2 07       	cpc	r27, r18
    1100:	e1 f7       	brne	.-8      	; 0x10fa <.do_clear_bss_loop>

00001102 <__do_global_ctors>:
    1102:	18 e0       	ldi	r17, 0x08	; 8
    1104:	c8 e6       	ldi	r28, 0x68	; 104
    1106:	d8 e0       	ldi	r29, 0x08	; 8
    1108:	04 c0       	rjmp	.+8      	; 0x1112 <__do_global_ctors+0x10>
    110a:	21 97       	sbiw	r28, 0x01	; 1
    110c:	fe 01       	movw	r30, r28
    110e:	0e 94 ec 1d 	call	0x3bd8	; 0x3bd8 <__tablejump2__>
    1112:	c7 36       	cpi	r28, 0x67	; 103
    1114:	d1 07       	cpc	r29, r17
    1116:	c9 f7       	brne	.-14     	; 0x110a <__do_global_ctors+0x8>
    1118:	0e 94 63 10 	call	0x20c6	; 0x20c6 <main>
    111c:	0c 94 f2 1d 	jmp	0x3be4	; 0x3be4 <_exit>

00001120 <__bad_interrupt>:
    1120:	0c 94 00 00 	jmp	0	; 0x0 <__vectors>

00001124 <fastbitmap_1bit>:
		r20:r21 fg color 
		r18:r19 bg color
	*/

	/* this block sets up the TOGGLE_WR_FAST registers r30:r31 */
	in r26, _SFR_IO_ADDR(WR_PORT)
    1124:	a5 b3       	in	r26, 0x15	; 21
	mov r27, r26
    1126:	ba 2f       	mov	r27, r26
	set
    1128:	68 94       	set
	bld r26,WR_PIN
    112a:	a7 f9       	bld	r26, 7
	clt
    112c:	e8 94       	clt
	bld r27,WR_PIN
    112e:	b7 f9       	bld	r27, 7
	
	movw r30, r22
    1130:	fb 01       	movw	r30, r22

00001132 <FB1BIT_LOOP>:

FB1BIT_LOOP:

	LPM r0, Z+
    1132:	05 90       	lpm	r0, Z+

	PLOT_MONO_PIXEL r0,7
    1134:	07 fa       	bst	r0, 7
    1136:	1e f4       	brtc	.+6      	; 0x113e <FB1BIT_LOOP+0xc>
    1138:	4b bb       	out	0x1b, r20	; 27
    113a:	52 bb       	out	0x12, r21	; 18
    113c:	02 c0       	rjmp	.+4      	; 0x1142 <FB1BIT_LOOP+0x10>
    113e:	2b bb       	out	0x1b, r18	; 27
    1140:	32 bb       	out	0x12, r19	; 18
    1142:	b5 bb       	out	0x15, r27	; 21
    1144:	a5 bb       	out	0x15, r26	; 21
	PLOT_MONO_PIXEL r0,6
    1146:	06 fa       	bst	r0, 6
    1148:	1e f4       	brtc	.+6      	; 0x1150 <FB1BIT_LOOP+0x1e>
    114a:	4b bb       	out	0x1b, r20	; 27
    114c:	52 bb       	out	0x12, r21	; 18
    114e:	02 c0       	rjmp	.+4      	; 0x1154 <FB1BIT_LOOP+0x22>
    1150:	2b bb       	out	0x1b, r18	; 27
    1152:	32 bb       	out	0x12, r19	; 18
    1154:	b5 bb       	out	0x15, r27	; 21
    1156:	a5 bb       	out	0x15, r26	; 21
	PLOT_MONO_PIXEL r0,5
    1158:	05 fa       	bst	r0, 5
    115a:	1e f4       	brtc	.+6      	; 0x1162 <FB1BIT_LOOP+0x30>
    115c:	4b bb       	out	0x1b, r20	; 27
    115e:	52 bb       	out	0x12, r21	; 18
    1160:	02 c0       	rjmp	.+4      	; 0x1166 <FB1BIT_LOOP+0x34>
    1162:	2b bb       	out	0x1b, r18	; 27
    1164:	32 bb       	out	0x12, r19	; 18
    1166:	b5 bb       	out	0x15, r27	; 21
    1168:	a5 bb       	out	0x15, r26	; 21
	PLOT_MONO_PIXEL r0,4
    116a:	04 fa       	bst	r0, 4
    116c:	1e f4       	brtc	.+6      	; 0x1174 <FB1BIT_LOOP+0x42>
    116e:	4b bb       	out	0x1b, r20	; 27
    1170:	52 bb       	out	0x12, r21	; 18
    1172:	02 c0       	rjmp	.+4      	; 0x1178 <FB1BIT_LOOP+0x46>
    1174:	2b bb       	out	0x1b, r18	; 27
    1176:	32 bb       	out	0x12, r19	; 18
    1178:	b5 bb       	out	0x15, r27	; 21
    117a:	a5 bb       	out	0x15, r26	; 21
	PLOT_MONO_PIXEL r0,3
    117c:	03 fa       	bst	r0, 3
    117e:	1e f4       	brtc	.+6      	; 0x1186 <FB1BIT_LOOP+0x54>
    1180:	4b bb       	out	0x1b, r20	; 27
    1182:	52 bb       	out	0x12, r21	; 18
    1184:	02 c0       	rjmp	.+4      	; 0x118a <FB1BIT_LOOP+0x58>
    1186:	2b bb       	out	0x1b, r18	; 27
    1188:	32 bb       	out	0x12, r19	; 18
    118a:	b5 bb       	out	0x15, r27	; 21
    118c:	a5 bb       	out	0x15, r26	; 21
	PLOT_MONO_PIXEL r0,2
    118e:	02 fa       	bst	r0, 2
    1190:	1e f4       	brtc	.+6      	; 0x1198 <FB1BIT_LOOP+0x66>
    1192:	4b bb       	out	0x1b, r20	; 27
    1194:	52 bb       	out	0x12, r21	; 18
    1196:	02 c0       	rjmp	.+4      	; 0x119c <FB1BIT_LOOP+0x6a>
    1198:	2b bb       	out	0x1b, r18	; 27
    119a:	32 bb       	out	0x12, r19	; 18
    119c:	b5 bb       	out	0x15, r27	; 21
    119e:	a5 bb       	out	0x15, r26	; 21
	PLOT_MONO_PIXEL r0,1
    11a0:	01 fa       	bst	r0, 1
    11a2:	1e f4       	brtc	.+6      	; 0x11aa <FB1BIT_LOOP+0x78>
    11a4:	4b bb       	out	0x1b, r20	; 27
    11a6:	52 bb       	out	0x12, r21	; 18
    11a8:	02 c0       	rjmp	.+4      	; 0x11ae <FB1BIT_LOOP+0x7c>
    11aa:	2b bb       	out	0x1b, r18	; 27
    11ac:	32 bb       	out	0x12, r19	; 18
    11ae:	b5 bb       	out	0x15, r27	; 21
    11b0:	a5 bb       	out	0x15, r26	; 21
	PLOT_MONO_PIXEL r0,0
    11b2:	00 fa       	bst	r0, 0
    11b4:	1e f4       	brtc	.+6      	; 0x11bc <FB1BIT_LOOP+0x8a>
    11b6:	4b bb       	out	0x1b, r20	; 27
    11b8:	52 bb       	out	0x12, r21	; 18
    11ba:	02 c0       	rjmp	.+4      	; 0x11c0 <FB1BIT_LOOP+0x8e>
    11bc:	2b bb       	out	0x1b, r18	; 27
    11be:	32 bb       	out	0x12, r19	; 18
    11c0:	b5 bb       	out	0x15, r27	; 21
    11c2:	a5 bb       	out	0x15, r26	; 21

	SUB16 r24,r25,1
    11c4:	81 50       	subi	r24, 0x01	; 1
    11c6:	90 40       	sbci	r25, 0x00	; 0

	cpi r24,0
    11c8:	80 30       	cpi	r24, 0x00	; 0
	cpc r25,r1
    11ca:	91 05       	cpc	r25, r1
	breq FB1BIT_DONE
    11cc:	11 f0       	breq	.+4      	; 0x11d2 <FB1BIT_DONE>
	jmp FB1BIT_LOOP
    11ce:	0c 94 99 08 	jmp	0x1132	; 0x1132 <FB1BIT_LOOP>

000011d2 <FB1BIT_DONE>:


FB1BIT_DONE:

	ret;
    11d2:	08 95       	ret

000011d4 <fastbitmap_16bit>:
		r24:r25 lenght in pixels/words
		r22:r23 pointer to data
	*/

	/* this block sets up the TOGGLE_WR_FAST registers r30:r31 */
	in r26, _SFR_IO_ADDR(WR_PORT)
    11d4:	a5 b3       	in	r26, 0x15	; 21
	mov r27, r26
    11d6:	ba 2f       	mov	r27, r26
	set
    11d8:	68 94       	set
	bld r26,WR_PIN
    11da:	a7 f9       	bld	r26, 7
	clt
    11dc:	e8 94       	clt
	bld r27,WR_PIN
    11de:	b7 f9       	bld	r27, 7
	
	movw r30, r22
    11e0:	fb 01       	movw	r30, r22

000011e2 <FB16BIT_LOOP>:

FB16BIT_LOOP:

	
	LPM r0, Z+	
    11e2:	05 90       	lpm	r0, Z+
	out DPHIO, r0	
    11e4:	02 ba       	out	0x12, r0	; 18
	LPM r0, Z+	
    11e6:	05 90       	lpm	r0, Z+
	out DPLIO, r0
    11e8:	0b ba       	out	0x1b, r0	; 27

	TOGGLE_WR_FAST r27,r26	// place a pixel!
    11ea:	b5 bb       	out	0x15, r27	; 21
    11ec:	a5 bb       	out	0x15, r26	; 21

	SUB16 r24,r25,1
    11ee:	81 50       	subi	r24, 0x01	; 1
    11f0:	90 40       	sbci	r25, 0x00	; 0

	cpi r24,0
    11f2:	80 30       	cpi	r24, 0x00	; 0
	cpc r25,r1
    11f4:	91 05       	cpc	r25, r1
	breq FB16BIT_DONE
    11f6:	11 f0       	breq	.+4      	; 0x11fc <FB16BIT_DONE>
	jmp FB16BIT_LOOP
    11f8:	0c 94 f1 08 	jmp	0x11e2	; 0x11e2 <FB16BIT_LOOP>

000011fc <FB16BIT_DONE>:


FB16BIT_DONE:

	ret;
    11fc:	08 95       	ret

000011fe <fastbitmap_pb565>:
		r24:r25 data
		
	*/

	/* this block sets up the TOGGLE_WR_FAST registers r30:r31 */
	in r26, _SFR_IO_ADDR(WR_PORT)
    11fe:	a5 b3       	in	r26, 0x15	; 21
	mov r27, r26
    1200:	ba 2f       	mov	r27, r26
	set
    1202:	68 94       	set
	bld r26,WR_PIN
    1204:	a7 f9       	bld	r26, 7
	clt
    1206:	e8 94       	clt
	bld r27,WR_PIN
    1208:	b7 f9       	bld	r27, 7
	
	movw r30, r24
    120a:	fc 01       	movw	r30, r24

	clr r1
    120c:	11 24       	eor	r1, r1

0000120e <PB565BIT_LOOP>:

PB565BIT_LOOP:
	
	LPM r18, Z+	
    120e:	25 91       	lpm	r18, Z+
	cpi r18,0
    1210:	20 30       	cpi	r18, 0x00	; 0
	breq PB565BIT_DONE
    1212:	a9 f0       	breq	.+42     	; 0x123e <PB565BIT_DONE>
	
	bst r18,7
    1214:	27 fb       	bst	r18, 7
	brtc PB565PLAIN
    1216:	56 f4       	brtc	.+20     	; 0x122c <PB565PLAIN>
	
	// compressed loop.
	andi r18,0x7F
    1218:	2f 77       	andi	r18, 0x7F	; 127
	LPM r0, Z+
    121a:	05 90       	lpm	r0, Z+
	out DPHIO, r0
    121c:	02 ba       	out	0x12, r0	; 18
	LPM r0, Z+
    121e:	05 90       	lpm	r0, Z+
	out DPLIO, r0
    1220:	0b ba       	out	0x1b, r0	; 27

00001222 <PB565COMPRESSED>:
	

PB565COMPRESSED:
	TOGGLE_WR_FAST r27,r26
    1222:	b5 bb       	out	0x15, r27	; 21
    1224:	a5 bb       	out	0x15, r26	; 21
	dec r18
    1226:	2a 95       	dec	r18
	brne PB565COMPRESSED
    1228:	e1 f7       	brne	.-8      	; 0x1222 <PB565COMPRESSED>
	rjmp PB565BIT_LOOP
    122a:	f1 cf       	rjmp	.-30     	; 0x120e <PB565BIT_LOOP>

0000122c <PB565PLAIN>:


PB565PLAIN:

	LPM r0, Z+
    122c:	05 90       	lpm	r0, Z+
	out DPHIO, r0
    122e:	02 ba       	out	0x12, r0	; 18
	LPM r0, Z+
    1230:	05 90       	lpm	r0, Z+
	out DPLIO, r0
    1232:	0b ba       	out	0x1b, r0	; 27
	TOGGLE_WR_FAST r27,r26
    1234:	b5 bb       	out	0x15, r27	; 21
    1236:	a5 bb       	out	0x15, r26	; 21
	dec r18
    1238:	2a 95       	dec	r18
	brne PB565PLAIN
    123a:	c1 f7       	brne	.-16     	; 0x122c <PB565PLAIN>
	rjmp PB565BIT_LOOP
    123c:	e8 cf       	rjmp	.-48     	; 0x120e <PB565BIT_LOOP>

0000123e <PB565BIT_DONE>:




PB565BIT_DONE:
	clr r0
    123e:	00 24       	eor	r0, r0
	ret;
    1240:	08 95       	ret

00001242 <fastfill>:
// r22-r25 unsigned 32 bit number of pixels to set.
// note that only 17 bits of this are used, so max pixels
// is 131071, which is fine since we only have 320 * 240 pixels or 76800 loops
fastfill:

	clr r18
    1242:	22 27       	eor	r18, r18

	// devide by 2
	// no need for register 25 it has no bits we care about.
	lsr r24
    1244:	86 95       	lsr	r24
	ror r23
    1246:	77 95       	ror	r23
	ror r22
    1248:	67 95       	ror	r22
	ror r18 // take carry onto r18 (modulus)
    124a:	27 95       	ror	r18

	// devide by 4
	// no need for register 24, it had a max of 1 bit we care about.
	lsr r23
    124c:	76 95       	lsr	r23
	ror r22
    124e:	67 95       	ror	r22
	ror r18 // take carry onto r18 (modulus)
    1250:	27 95       	ror	r18

	// devide by 8
	//lsr r24
	lsr r23
    1252:	76 95       	lsr	r23
	ror r22
    1254:	67 95       	ror	r22
	ror r18 // take carry onto r18 (modulus)
    1256:	27 95       	ror	r18

	// devide by 16		
	// lsr r24
	lsr r23
    1258:	76 95       	lsr	r23
	ror r22
    125a:	67 95       	ror	r22
	ror r18 // take carry onto r18 (modulus)
    125c:	27 95       	ror	r18

	// finish rolling a full 8 bits aka swap nibbles
	swap r18
    125e:	22 95       	swap	r18

	movw r24, r22
    1260:	cb 01       	movw	r24, r22

00001262 <fastfill2>:
// r24 + r25 hold 16 bit unsigned number of 16xloops.
// r18 holds 8 bit unsigned numner of single loops
fastfill2:

	// prepare the out port registers
	in r30, _SFR_IO_ADDR(WR_PORT)
    1262:	e5 b3       	in	r30, 0x15	; 21
	mov r31, r30
    1264:	fe 2f       	mov	r31, r30
	set
    1266:	68 94       	set
	bld r30,WR_PIN
    1268:	e7 f9       	bld	r30, 7
	clt
    126a:	e8 94       	clt
	bld r31,WR_PIN
    126c:	f7 f9       	bld	r31, 7

	sbiw r24,0 // subtract zero and test if zero	
    126e:	00 97       	sbiw	r24, 0x00	; 0
	breq exitloop16
    1270:	11 f1       	breq	.+68     	; 0x12b6 <exitloop16>

00001272 <loop16>:
loop16:
		
	TOGGLE_WR_FAST r31,r30
    1272:	f5 bb       	out	0x15, r31	; 21
    1274:	e5 bb       	out	0x15, r30	; 21
	TOGGLE_WR_FAST r31,r30
    1276:	f5 bb       	out	0x15, r31	; 21
    1278:	e5 bb       	out	0x15, r30	; 21
	TOGGLE_WR_FAST r31,r30
    127a:	f5 bb       	out	0x15, r31	; 21
    127c:	e5 bb       	out	0x15, r30	; 21
	TOGGLE_WR_FAST r31,r30
    127e:	f5 bb       	out	0x15, r31	; 21
    1280:	e5 bb       	out	0x15, r30	; 21
		
	TOGGLE_WR_FAST r31,r30
    1282:	f5 bb       	out	0x15, r31	; 21
    1284:	e5 bb       	out	0x15, r30	; 21
	TOGGLE_WR_FAST r31,r30
    1286:	f5 bb       	out	0x15, r31	; 21
    1288:	e5 bb       	out	0x15, r30	; 21
	TOGGLE_WR_FAST r31,r30
    128a:	f5 bb       	out	0x15, r31	; 21
    128c:	e5 bb       	out	0x15, r30	; 21
	TOGGLE_WR_FAST r31,r30
    128e:	f5 bb       	out	0x15, r31	; 21
    1290:	e5 bb       	out	0x15, r30	; 21
		
	TOGGLE_WR_FAST r31,r30
    1292:	f5 bb       	out	0x15, r31	; 21
    1294:	e5 bb       	out	0x15, r30	; 21
	TOGGLE_WR_FAST r31,r30
    1296:	f5 bb       	out	0x15, r31	; 21
    1298:	e5 bb       	out	0x15, r30	; 21
	TOGGLE_WR_FAST r31,r30
    129a:	f5 bb       	out	0x15, r31	; 21
    129c:	e5 bb       	out	0x15, r30	; 21
	TOGGLE_WR_FAST r31,r30
    129e:	f5 bb       	out	0x15, r31	; 21
    12a0:	e5 bb       	out	0x15, r30	; 21
		
	TOGGLE_WR_FAST r31,r30
    12a2:	f5 bb       	out	0x15, r31	; 21
    12a4:	e5 bb       	out	0x15, r30	; 21
	TOGGLE_WR_FAST r31,r30
    12a6:	f5 bb       	out	0x15, r31	; 21
    12a8:	e5 bb       	out	0x15, r30	; 21
	TOGGLE_WR_FAST r31,r30
    12aa:	f5 bb       	out	0x15, r31	; 21
    12ac:	e5 bb       	out	0x15, r30	; 21
	TOGGLE_WR_FAST r31,r30
    12ae:	f5 bb       	out	0x15, r31	; 21
    12b0:	e5 bb       	out	0x15, r30	; 21

	sbiw r24,1	
    12b2:	01 97       	sbiw	r24, 0x01	; 1
	brne loop16
    12b4:	f1 f6       	brne	.-68     	; 0x1272 <loop16>

000012b6 <exitloop16>:

exitloop16:

	cpi r18,0
    12b6:	20 30       	cpi	r18, 0x00	; 0
	breq exitsingleloop
    12b8:	21 f0       	breq	.+8      	; 0x12c2 <exitsingleloop>

000012ba <singleloop>:
singleloop:			
	TOGGLE_WR_FAST r31,r30
    12ba:	f5 bb       	out	0x15, r31	; 21
    12bc:	e5 bb       	out	0x15, r30	; 21
	dec r18
    12be:	2a 95       	dec	r18
	brne singleloop
    12c0:	e1 f7       	brne	.-8      	; 0x12ba <singleloop>

000012c2 <exitsingleloop>:

exitsingleloop:
	ret 
    12c2:	08 95       	ret

000012c4 <fastfill3>:

// r22-r25 unsigned 32 bit number of pixels to set.
// note that only 17 bits of this are used, so max pixels
// is 131071, which is fine since we only have 320 * 240 pixels or 76800 loops
fastfill3:
	TOGGLE_WR
    12c4:	af 98       	cbi	0x15, 7	; 21
    12c6:	af 9a       	sbi	0x15, 7	; 21
	SUB32 r22,r23,r24,r25,1
    12c8:	61 50       	subi	r22, 0x01	; 1
    12ca:	70 40       	sbci	r23, 0x00	; 0
    12cc:	80 40       	sbci	r24, 0x00	; 0
    12ce:	90 40       	sbci	r25, 0x00	; 0
	brne fastfill3
    12d0:	c9 f7       	brne	.-14     	; 0x12c4 <fastfill3>

    12d2:	08 95       	ret

000012d4 <LCD_Write_COM>:
#include "as_macros.h"


.global LCD_Write_COM
LCD_Write_COM:
	BUS_START_REG
    12d4:	ae 98       	cbi	0x15, 6	; 21
	clr r1
    12d6:	11 24       	eor	r1, r1
	out DPLIO, r24
    12d8:	8b bb       	out	0x1b, r24	; 27
	out DPHIO, r1
    12da:	12 ba       	out	0x12, r1	; 18
	TOGGLE_WR
    12dc:	af 98       	cbi	0x15, 7	; 21
    12de:	af 9a       	sbi	0x15, 7	; 21
	ret
    12e0:	08 95       	ret

000012e2 <LCD_Write_DATA>:

.global LCD_Write_DATA
LCD_Write_DATA:
	BUS_START_DATA	
    12e2:	ae 9a       	sbi	0x15, 6	; 21
	out DPLIO, r22
    12e4:	6b bb       	out	0x1b, r22	; 27
	out DPHIO, r24
    12e6:	82 bb       	out	0x12, r24	; 18
	TOGGLE_WR
    12e8:	af 98       	cbi	0x15, 7	; 21
    12ea:	af 9a       	sbi	0x15, 7	; 21
	ret
    12ec:	08 95       	ret

000012ee <LCD_Write_DATA2>:

.global LCD_Write_DATA2
LCD_Write_DATA2:
	BUS_START_DATA	
    12ee:	ae 9a       	sbi	0x15, 6	; 21
	clr r1
    12f0:	11 24       	eor	r1, r1
	out DPLIO, r24
    12f2:	8b bb       	out	0x1b, r24	; 27
	out DPHIO, r1
    12f4:	12 ba       	out	0x12, r1	; 18
	TOGGLE_WR
    12f6:	af 98       	cbi	0x15, 7	; 21
    12f8:	af 9a       	sbi	0x15, 7	; 21
	ret
    12fa:	08 95       	ret

000012fc <LCD_Write_COM_DATA>:


.global LCD_Write_COM_DATA
LCD_Write_COM_DATA:
	
	BUS_START_REG
    12fc:	ae 98       	cbi	0x15, 6	; 21
	clr r1
    12fe:	11 24       	eor	r1, r1
	out DPLIO, r24
    1300:	8b bb       	out	0x1b, r24	; 27
	out DPHIO, r1
    1302:	12 ba       	out	0x12, r1	; 18
	TOGGLE_WR
    1304:	af 98       	cbi	0x15, 7	; 21
    1306:	af 9a       	sbi	0x15, 7	; 21

	BUS_START_DATA	
    1308:	ae 9a       	sbi	0x15, 6	; 21
	out DPLIO, r22
    130a:	6b bb       	out	0x1b, r22	; 27
	out DPHIO, r23
    130c:	72 bb       	out	0x12, r23	; 18
	TOGGLE_WR
    130e:	af 98       	cbi	0x15, 7	; 21
    1310:	af 9a       	sbi	0x15, 7	; 21

	ret
    1312:	08 95       	ret

00001314 <LCD_Writ_Bus>:


.global LCD_Writ_Bus
	LCD_Writ_Bus:

	out DPHIO, r24
    1314:	82 bb       	out	0x12, r24	; 18
	out DPLIO, r22
    1316:	6b bb       	out	0x1b, r22	; 27
	TOGGLE_WR
    1318:	af 98       	cbi	0x15, 7	; 21
    131a:	af 9a       	sbi	0x15, 7	; 21

    131c:	08 95       	ret

0000131e <fastlineAPP>:
.global fastlineAPN
.global fastlineANP
.global fastlineANN

fastlineAPP:
FAST_LINE_A ADD16 ADD16
    131e:	cf 93       	push	r28
    1320:	e5 b3       	in	r30, 0x15	; 21
    1322:	fe 2f       	mov	r31, r30
    1324:	68 94       	set
    1326:	e7 f9       	bld	r30, 7
    1328:	e8 94       	clt
    132a:	f7 f9       	bld	r31, 7
    132c:	8b bb       	out	0x1b, r24	; 27
    132e:	92 bb       	out	0x12, r25	; 18
    1330:	d6 01       	movw	r26, r12
    1332:	b6 95       	lsr	r27
    1334:	a7 95       	ror	r26
    1336:	0f 5f       	subi	r16, 0xFF	; 255
    1338:	1f 4f       	sbci	r17, 0xFF	; 255
    133a:	02 c0       	rjmp	.+4      	; 0x1340 <fastlineAPP+0x22>
    133c:	2f 5f       	subi	r18, 0xFF	; 255
    133e:	3f 4f       	sbci	r19, 0xFF	; 255
    1340:	20 17       	cp	r18, r16
    1342:	31 07       	cpc	r19, r17
    1344:	81 f1       	breq	.+96     	; 0x13a6 <fastlineAPP+0x88>
    1346:	f5 bb       	out	0x15, r31	; 21
    1348:	e5 bb       	out	0x15, r30	; 21
    134a:	ae 0d       	add	r26, r14
    134c:	bf 1d       	adc	r27, r15
    134e:	ac 15       	cp	r26, r12
    1350:	bd 05       	cpc	r27, r13
    1352:	a0 f3       	brcs	.-24     	; 0x133c <fastlineAPP+0x1e>
    1354:	ac 19       	sub	r26, r12
    1356:	bd 09       	sbc	r27, r13
    1358:	6f 5f       	subi	r22, 0xFF	; 255
    135a:	7f 4f       	sbci	r23, 0xFF	; 255
    135c:	2f 5f       	subi	r18, 0xFF	; 255
    135e:	3f 4f       	sbci	r19, 0xFF	; 255
    1360:	ae 98       	cbi	0x15, 6	; 21
    1362:	c0 e0       	ldi	r28, 0x00	; 0
    1364:	c2 bb       	out	0x12, r28	; 18
    1366:	ce e4       	ldi	r28, 0x4E	; 78
    1368:	cb bb       	out	0x1b, r28	; 27
    136a:	af 98       	cbi	0x15, 7	; 21
    136c:	af 9a       	sbi	0x15, 7	; 21
    136e:	ae 9a       	sbi	0x15, 6	; 21
    1370:	72 bb       	out	0x12, r23	; 18
    1372:	6b bb       	out	0x1b, r22	; 27
    1374:	af 98       	cbi	0x15, 7	; 21
    1376:	af 9a       	sbi	0x15, 7	; 21
    1378:	ae 98       	cbi	0x15, 6	; 21
    137a:	c0 e0       	ldi	r28, 0x00	; 0
    137c:	c2 bb       	out	0x12, r28	; 18
    137e:	cf e4       	ldi	r28, 0x4F	; 79
    1380:	cb bb       	out	0x1b, r28	; 27
    1382:	af 98       	cbi	0x15, 7	; 21
    1384:	af 9a       	sbi	0x15, 7	; 21
    1386:	ae 9a       	sbi	0x15, 6	; 21
    1388:	32 bb       	out	0x12, r19	; 18
    138a:	2b bb       	out	0x1b, r18	; 27
    138c:	af 98       	cbi	0x15, 7	; 21
    138e:	af 9a       	sbi	0x15, 7	; 21
    1390:	ae 98       	cbi	0x15, 6	; 21
    1392:	c0 e0       	ldi	r28, 0x00	; 0
    1394:	c2 bb       	out	0x12, r28	; 18
    1396:	c2 e2       	ldi	r28, 0x22	; 34
    1398:	cb bb       	out	0x1b, r28	; 27
    139a:	af 98       	cbi	0x15, 7	; 21
    139c:	af 9a       	sbi	0x15, 7	; 21
    139e:	ae 9a       	sbi	0x15, 6	; 21
    13a0:	8b bb       	out	0x1b, r24	; 27
    13a2:	92 bb       	out	0x12, r25	; 18
    13a4:	cd cf       	rjmp	.-102    	; 0x1340 <fastlineAPP+0x22>
    13a6:	cf 91       	pop	r28
    13a8:	08 95       	ret

000013aa <fastlineAPN>:

fastlineAPN:
FAST_LINE_A ADD16 SUB16
    13aa:	cf 93       	push	r28
    13ac:	e5 b3       	in	r30, 0x15	; 21
    13ae:	fe 2f       	mov	r31, r30
    13b0:	68 94       	set
    13b2:	e7 f9       	bld	r30, 7
    13b4:	e8 94       	clt
    13b6:	f7 f9       	bld	r31, 7
    13b8:	8b bb       	out	0x1b, r24	; 27
    13ba:	92 bb       	out	0x12, r25	; 18
    13bc:	d6 01       	movw	r26, r12
    13be:	b6 95       	lsr	r27
    13c0:	a7 95       	ror	r26
    13c2:	01 50       	subi	r16, 0x01	; 1
    13c4:	10 40       	sbci	r17, 0x00	; 0
    13c6:	02 c0       	rjmp	.+4      	; 0x13cc <fastlineAPN+0x22>
    13c8:	21 50       	subi	r18, 0x01	; 1
    13ca:	30 40       	sbci	r19, 0x00	; 0
    13cc:	20 17       	cp	r18, r16
    13ce:	31 07       	cpc	r19, r17
    13d0:	81 f1       	breq	.+96     	; 0x1432 <fastlineAPN+0x88>
    13d2:	f5 bb       	out	0x15, r31	; 21
    13d4:	e5 bb       	out	0x15, r30	; 21
    13d6:	ae 0d       	add	r26, r14
    13d8:	bf 1d       	adc	r27, r15
    13da:	ac 15       	cp	r26, r12
    13dc:	bd 05       	cpc	r27, r13
    13de:	a0 f3       	brcs	.-24     	; 0x13c8 <fastlineAPN+0x1e>
    13e0:	ac 19       	sub	r26, r12
    13e2:	bd 09       	sbc	r27, r13
    13e4:	6f 5f       	subi	r22, 0xFF	; 255
    13e6:	7f 4f       	sbci	r23, 0xFF	; 255
    13e8:	21 50       	subi	r18, 0x01	; 1
    13ea:	30 40       	sbci	r19, 0x00	; 0
    13ec:	ae 98       	cbi	0x15, 6	; 21
    13ee:	c0 e0       	ldi	r28, 0x00	; 0
    13f0:	c2 bb       	out	0x12, r28	; 18
    13f2:	ce e4       	ldi	r28, 0x4E	; 78
    13f4:	cb bb       	out	0x1b, r28	; 27
    13f6:	af 98       	cbi	0x15, 7	; 21
    13f8:	af 9a       	sbi	0x15, 7	; 21
    13fa:	ae 9a       	sbi	0x15, 6	; 21
    13fc:	72 bb       	out	0x12, r23	; 18
    13fe:	6b bb       	out	0x1b, r22	; 27
    1400:	af 98       	cbi	0x15, 7	; 21
    1402:	af 9a       	sbi	0x15, 7	; 21
    1404:	ae 98       	cbi	0x15, 6	; 21
    1406:	c0 e0       	ldi	r28, 0x00	; 0
    1408:	c2 bb       	out	0x12, r28	; 18
    140a:	cf e4       	ldi	r28, 0x4F	; 79
    140c:	cb bb       	out	0x1b, r28	; 27
    140e:	af 98       	cbi	0x15, 7	; 21
    1410:	af 9a       	sbi	0x15, 7	; 21
    1412:	ae 9a       	sbi	0x15, 6	; 21
    1414:	32 bb       	out	0x12, r19	; 18
    1416:	2b bb       	out	0x1b, r18	; 27
    1418:	af 98       	cbi	0x15, 7	; 21
    141a:	af 9a       	sbi	0x15, 7	; 21
    141c:	ae 98       	cbi	0x15, 6	; 21
    141e:	c0 e0       	ldi	r28, 0x00	; 0
    1420:	c2 bb       	out	0x12, r28	; 18
    1422:	c2 e2       	ldi	r28, 0x22	; 34
    1424:	cb bb       	out	0x1b, r28	; 27
    1426:	af 98       	cbi	0x15, 7	; 21
    1428:	af 9a       	sbi	0x15, 7	; 21
    142a:	ae 9a       	sbi	0x15, 6	; 21
    142c:	8b bb       	out	0x1b, r24	; 27
    142e:	92 bb       	out	0x12, r25	; 18
    1430:	cd cf       	rjmp	.-102    	; 0x13cc <fastlineAPN+0x22>
    1432:	cf 91       	pop	r28
    1434:	08 95       	ret

00001436 <fastlineANP>:

fastlineANP:
FAST_LINE_A SUB16 ADD16
    1436:	cf 93       	push	r28
    1438:	e5 b3       	in	r30, 0x15	; 21
    143a:	fe 2f       	mov	r31, r30
    143c:	68 94       	set
    143e:	e7 f9       	bld	r30, 7
    1440:	e8 94       	clt
    1442:	f7 f9       	bld	r31, 7
    1444:	8b bb       	out	0x1b, r24	; 27
    1446:	92 bb       	out	0x12, r25	; 18
    1448:	d6 01       	movw	r26, r12
    144a:	b6 95       	lsr	r27
    144c:	a7 95       	ror	r26
    144e:	0f 5f       	subi	r16, 0xFF	; 255
    1450:	1f 4f       	sbci	r17, 0xFF	; 255
    1452:	02 c0       	rjmp	.+4      	; 0x1458 <fastlineANP+0x22>
    1454:	2f 5f       	subi	r18, 0xFF	; 255
    1456:	3f 4f       	sbci	r19, 0xFF	; 255
    1458:	20 17       	cp	r18, r16
    145a:	31 07       	cpc	r19, r17
    145c:	81 f1       	breq	.+96     	; 0x14be <fastlineANP+0x88>
    145e:	f5 bb       	out	0x15, r31	; 21
    1460:	e5 bb       	out	0x15, r30	; 21
    1462:	ae 0d       	add	r26, r14
    1464:	bf 1d       	adc	r27, r15
    1466:	ac 15       	cp	r26, r12
    1468:	bd 05       	cpc	r27, r13
    146a:	a0 f3       	brcs	.-24     	; 0x1454 <fastlineANP+0x1e>
    146c:	ac 19       	sub	r26, r12
    146e:	bd 09       	sbc	r27, r13
    1470:	61 50       	subi	r22, 0x01	; 1
    1472:	70 40       	sbci	r23, 0x00	; 0
    1474:	2f 5f       	subi	r18, 0xFF	; 255
    1476:	3f 4f       	sbci	r19, 0xFF	; 255
    1478:	ae 98       	cbi	0x15, 6	; 21
    147a:	c0 e0       	ldi	r28, 0x00	; 0
    147c:	c2 bb       	out	0x12, r28	; 18
    147e:	ce e4       	ldi	r28, 0x4E	; 78
    1480:	cb bb       	out	0x1b, r28	; 27
    1482:	af 98       	cbi	0x15, 7	; 21
    1484:	af 9a       	sbi	0x15, 7	; 21
    1486:	ae 9a       	sbi	0x15, 6	; 21
    1488:	72 bb       	out	0x12, r23	; 18
    148a:	6b bb       	out	0x1b, r22	; 27
    148c:	af 98       	cbi	0x15, 7	; 21
    148e:	af 9a       	sbi	0x15, 7	; 21
    1490:	ae 98       	cbi	0x15, 6	; 21
    1492:	c0 e0       	ldi	r28, 0x00	; 0
    1494:	c2 bb       	out	0x12, r28	; 18
    1496:	cf e4       	ldi	r28, 0x4F	; 79
    1498:	cb bb       	out	0x1b, r28	; 27
    149a:	af 98       	cbi	0x15, 7	; 21
    149c:	af 9a       	sbi	0x15, 7	; 21
    149e:	ae 9a       	sbi	0x15, 6	; 21
    14a0:	32 bb       	out	0x12, r19	; 18
    14a2:	2b bb       	out	0x1b, r18	; 27
    14a4:	af 98       	cbi	0x15, 7	; 21
    14a6:	af 9a       	sbi	0x15, 7	; 21
    14a8:	ae 98       	cbi	0x15, 6	; 21
    14aa:	c0 e0       	ldi	r28, 0x00	; 0
    14ac:	c2 bb       	out	0x12, r28	; 18
    14ae:	c2 e2       	ldi	r28, 0x22	; 34
    14b0:	cb bb       	out	0x1b, r28	; 27
    14b2:	af 98       	cbi	0x15, 7	; 21
    14b4:	af 9a       	sbi	0x15, 7	; 21
    14b6:	ae 9a       	sbi	0x15, 6	; 21
    14b8:	8b bb       	out	0x1b, r24	; 27
    14ba:	92 bb       	out	0x12, r25	; 18
    14bc:	cd cf       	rjmp	.-102    	; 0x1458 <fastlineANP+0x22>
    14be:	cf 91       	pop	r28
    14c0:	08 95       	ret

000014c2 <fastlineANN>:

fastlineANN:
FAST_LINE_A SUB16 SUB16
    14c2:	cf 93       	push	r28
    14c4:	e5 b3       	in	r30, 0x15	; 21
    14c6:	fe 2f       	mov	r31, r30
    14c8:	68 94       	set
    14ca:	e7 f9       	bld	r30, 7
    14cc:	e8 94       	clt
    14ce:	f7 f9       	bld	r31, 7
    14d0:	8b bb       	out	0x1b, r24	; 27
    14d2:	92 bb       	out	0x12, r25	; 18
    14d4:	d6 01       	movw	r26, r12
    14d6:	b6 95       	lsr	r27
    14d8:	a7 95       	ror	r26
    14da:	01 50       	subi	r16, 0x01	; 1
    14dc:	10 40       	sbci	r17, 0x00	; 0
    14de:	02 c0       	rjmp	.+4      	; 0x14e4 <fastlineANN+0x22>
    14e0:	21 50       	subi	r18, 0x01	; 1
    14e2:	30 40       	sbci	r19, 0x00	; 0
    14e4:	20 17       	cp	r18, r16
    14e6:	31 07       	cpc	r19, r17
    14e8:	81 f1       	breq	.+96     	; 0x154a <fastlineANN+0x88>
    14ea:	f5 bb       	out	0x15, r31	; 21
    14ec:	e5 bb       	out	0x15, r30	; 21
    14ee:	ae 0d       	add	r26, r14
    14f0:	bf 1d       	adc	r27, r15
    14f2:	ac 15       	cp	r26, r12
    14f4:	bd 05       	cpc	r27, r13
    14f6:	a0 f3       	brcs	.-24     	; 0x14e0 <fastlineANN+0x1e>
    14f8:	ac 19       	sub	r26, r12
    14fa:	bd 09       	sbc	r27, r13
    14fc:	61 50       	subi	r22, 0x01	; 1
    14fe:	70 40       	sbci	r23, 0x00	; 0
    1500:	21 50       	subi	r18, 0x01	; 1
    1502:	30 40       	sbci	r19, 0x00	; 0
    1504:	ae 98       	cbi	0x15, 6	; 21
    1506:	c0 e0       	ldi	r28, 0x00	; 0
    1508:	c2 bb       	out	0x12, r28	; 18
    150a:	ce e4       	ldi	r28, 0x4E	; 78
    150c:	cb bb       	out	0x1b, r28	; 27
    150e:	af 98       	cbi	0x15, 7	; 21
    1510:	af 9a       	sbi	0x15, 7	; 21
    1512:	ae 9a       	sbi	0x15, 6	; 21
    1514:	72 bb       	out	0x12, r23	; 18
    1516:	6b bb       	out	0x1b, r22	; 27
    1518:	af 98       	cbi	0x15, 7	; 21
    151a:	af 9a       	sbi	0x15, 7	; 21
    151c:	ae 98       	cbi	0x15, 6	; 21
    151e:	c0 e0       	ldi	r28, 0x00	; 0
    1520:	c2 bb       	out	0x12, r28	; 18
    1522:	cf e4       	ldi	r28, 0x4F	; 79
    1524:	cb bb       	out	0x1b, r28	; 27
    1526:	af 98       	cbi	0x15, 7	; 21
    1528:	af 9a       	sbi	0x15, 7	; 21
    152a:	ae 9a       	sbi	0x15, 6	; 21
    152c:	32 bb       	out	0x12, r19	; 18
    152e:	2b bb       	out	0x1b, r18	; 27
    1530:	af 98       	cbi	0x15, 7	; 21
    1532:	af 9a       	sbi	0x15, 7	; 21
    1534:	ae 98       	cbi	0x15, 6	; 21
    1536:	c0 e0       	ldi	r28, 0x00	; 0
    1538:	c2 bb       	out	0x12, r28	; 18
    153a:	c2 e2       	ldi	r28, 0x22	; 34
    153c:	cb bb       	out	0x1b, r28	; 27
    153e:	af 98       	cbi	0x15, 7	; 21
    1540:	af 9a       	sbi	0x15, 7	; 21
    1542:	ae 9a       	sbi	0x15, 6	; 21
    1544:	8b bb       	out	0x1b, r24	; 27
    1546:	92 bb       	out	0x12, r25	; 18
    1548:	cd cf       	rjmp	.-102    	; 0x14e4 <fastlineANN+0x22>
    154a:	cf 91       	pop	r28
    154c:	08 95       	ret

0000154e <fastlineBPP>:
.global fastlineBPN
.global fastlineBNP
.global fastlineBNN

fastlineBPP:
FAST_LINE_B ADD16 ADD16
    154e:	cf 93       	push	r28
    1550:	e5 b3       	in	r30, 0x15	; 21
    1552:	fe 2f       	mov	r31, r30
    1554:	68 94       	set
    1556:	e7 f9       	bld	r30, 7
    1558:	e8 94       	clt
    155a:	f7 f9       	bld	r31, 7
    155c:	8b bb       	out	0x1b, r24	; 27
    155e:	92 bb       	out	0x12, r25	; 18
    1560:	d7 01       	movw	r26, r14
    1562:	b6 95       	lsr	r27
    1564:	a7 95       	ror	r26
    1566:	4f 5f       	subi	r20, 0xFF	; 255
    1568:	5f 4f       	sbci	r21, 0xFF	; 255
    156a:	02 c0       	rjmp	.+4      	; 0x1570 <fastlineBPP+0x22>
    156c:	6f 5f       	subi	r22, 0xFF	; 255
    156e:	7f 4f       	sbci	r23, 0xFF	; 255
    1570:	64 17       	cp	r22, r20
    1572:	75 07       	cpc	r23, r21
    1574:	81 f1       	breq	.+96     	; 0x15d6 <fastlineBPP+0x88>
    1576:	f5 bb       	out	0x15, r31	; 21
    1578:	e5 bb       	out	0x15, r30	; 21
    157a:	ac 0d       	add	r26, r12
    157c:	bd 1d       	adc	r27, r13
    157e:	ae 15       	cp	r26, r14
    1580:	bf 05       	cpc	r27, r15
    1582:	a0 f3       	brcs	.-24     	; 0x156c <fastlineBPP+0x1e>
    1584:	ae 19       	sub	r26, r14
    1586:	bf 09       	sbc	r27, r15
    1588:	6f 5f       	subi	r22, 0xFF	; 255
    158a:	7f 4f       	sbci	r23, 0xFF	; 255
    158c:	2f 5f       	subi	r18, 0xFF	; 255
    158e:	3f 4f       	sbci	r19, 0xFF	; 255
    1590:	ae 98       	cbi	0x15, 6	; 21
    1592:	c0 e0       	ldi	r28, 0x00	; 0
    1594:	c2 bb       	out	0x12, r28	; 18
    1596:	ce e4       	ldi	r28, 0x4E	; 78
    1598:	cb bb       	out	0x1b, r28	; 27
    159a:	af 98       	cbi	0x15, 7	; 21
    159c:	af 9a       	sbi	0x15, 7	; 21
    159e:	ae 9a       	sbi	0x15, 6	; 21
    15a0:	72 bb       	out	0x12, r23	; 18
    15a2:	6b bb       	out	0x1b, r22	; 27
    15a4:	af 98       	cbi	0x15, 7	; 21
    15a6:	af 9a       	sbi	0x15, 7	; 21
    15a8:	ae 98       	cbi	0x15, 6	; 21
    15aa:	c0 e0       	ldi	r28, 0x00	; 0
    15ac:	c2 bb       	out	0x12, r28	; 18
    15ae:	cf e4       	ldi	r28, 0x4F	; 79
    15b0:	cb bb       	out	0x1b, r28	; 27
    15b2:	af 98       	cbi	0x15, 7	; 21
    15b4:	af 9a       	sbi	0x15, 7	; 21
    15b6:	ae 9a       	sbi	0x15, 6	; 21
    15b8:	32 bb       	out	0x12, r19	; 18
    15ba:	2b bb       	out	0x1b, r18	; 27
    15bc:	af 98       	cbi	0x15, 7	; 21
    15be:	af 9a       	sbi	0x15, 7	; 21
    15c0:	ae 98       	cbi	0x15, 6	; 21
    15c2:	c0 e0       	ldi	r28, 0x00	; 0
    15c4:	c2 bb       	out	0x12, r28	; 18
    15c6:	c2 e2       	ldi	r28, 0x22	; 34
    15c8:	cb bb       	out	0x1b, r28	; 27
    15ca:	af 98       	cbi	0x15, 7	; 21
    15cc:	af 9a       	sbi	0x15, 7	; 21
    15ce:	ae 9a       	sbi	0x15, 6	; 21
    15d0:	8b bb       	out	0x1b, r24	; 27
    15d2:	92 bb       	out	0x12, r25	; 18
    15d4:	cd cf       	rjmp	.-102    	; 0x1570 <fastlineBPP+0x22>
    15d6:	cf 91       	pop	r28
    15d8:	08 95       	ret

000015da <fastlineBPN>:

fastlineBPN:
FAST_LINE_B ADD16 SUB16
    15da:	cf 93       	push	r28
    15dc:	e5 b3       	in	r30, 0x15	; 21
    15de:	fe 2f       	mov	r31, r30
    15e0:	68 94       	set
    15e2:	e7 f9       	bld	r30, 7
    15e4:	e8 94       	clt
    15e6:	f7 f9       	bld	r31, 7
    15e8:	8b bb       	out	0x1b, r24	; 27
    15ea:	92 bb       	out	0x12, r25	; 18
    15ec:	d7 01       	movw	r26, r14
    15ee:	b6 95       	lsr	r27
    15f0:	a7 95       	ror	r26
    15f2:	4f 5f       	subi	r20, 0xFF	; 255
    15f4:	5f 4f       	sbci	r21, 0xFF	; 255
    15f6:	02 c0       	rjmp	.+4      	; 0x15fc <fastlineBPN+0x22>
    15f8:	6f 5f       	subi	r22, 0xFF	; 255
    15fa:	7f 4f       	sbci	r23, 0xFF	; 255
    15fc:	64 17       	cp	r22, r20
    15fe:	75 07       	cpc	r23, r21
    1600:	81 f1       	breq	.+96     	; 0x1662 <fastlineBPN+0x88>
    1602:	f5 bb       	out	0x15, r31	; 21
    1604:	e5 bb       	out	0x15, r30	; 21
    1606:	ac 0d       	add	r26, r12
    1608:	bd 1d       	adc	r27, r13
    160a:	ae 15       	cp	r26, r14
    160c:	bf 05       	cpc	r27, r15
    160e:	a0 f3       	brcs	.-24     	; 0x15f8 <fastlineBPN+0x1e>
    1610:	ae 19       	sub	r26, r14
    1612:	bf 09       	sbc	r27, r15
    1614:	6f 5f       	subi	r22, 0xFF	; 255
    1616:	7f 4f       	sbci	r23, 0xFF	; 255
    1618:	21 50       	subi	r18, 0x01	; 1
    161a:	30 40       	sbci	r19, 0x00	; 0
    161c:	ae 98       	cbi	0x15, 6	; 21
    161e:	c0 e0       	ldi	r28, 0x00	; 0
    1620:	c2 bb       	out	0x12, r28	; 18
    1622:	ce e4       	ldi	r28, 0x4E	; 78
    1624:	cb bb       	out	0x1b, r28	; 27
    1626:	af 98       	cbi	0x15, 7	; 21
    1628:	af 9a       	sbi	0x15, 7	; 21
    162a:	ae 9a       	sbi	0x15, 6	; 21
    162c:	72 bb       	out	0x12, r23	; 18
    162e:	6b bb       	out	0x1b, r22	; 27
    1630:	af 98       	cbi	0x15, 7	; 21
    1632:	af 9a       	sbi	0x15, 7	; 21
    1634:	ae 98       	cbi	0x15, 6	; 21
    1636:	c0 e0       	ldi	r28, 0x00	; 0
    1638:	c2 bb       	out	0x12, r28	; 18
    163a:	cf e4       	ldi	r28, 0x4F	; 79
    163c:	cb bb       	out	0x1b, r28	; 27
    163e:	af 98       	cbi	0x15, 7	; 21
    1640:	af 9a       	sbi	0x15, 7	; 21
    1642:	ae 9a       	sbi	0x15, 6	; 21
    1644:	32 bb       	out	0x12, r19	; 18
    1646:	2b bb       	out	0x1b, r18	; 27
    1648:	af 98       	cbi	0x15, 7	; 21
    164a:	af 9a       	sbi	0x15, 7	; 21
    164c:	ae 98       	cbi	0x15, 6	; 21
    164e:	c0 e0       	ldi	r28, 0x00	; 0
    1650:	c2 bb       	out	0x12, r28	; 18
    1652:	c2 e2       	ldi	r28, 0x22	; 34
    1654:	cb bb       	out	0x1b, r28	; 27
    1656:	af 98       	cbi	0x15, 7	; 21
    1658:	af 9a       	sbi	0x15, 7	; 21
    165a:	ae 9a       	sbi	0x15, 6	; 21
    165c:	8b bb       	out	0x1b, r24	; 27
    165e:	92 bb       	out	0x12, r25	; 18
    1660:	cd cf       	rjmp	.-102    	; 0x15fc <fastlineBPN+0x22>
    1662:	cf 91       	pop	r28
    1664:	08 95       	ret

00001666 <fastlineBNP>:

fastlineBNP:
FAST_LINE_B SUB16 ADD16
    1666:	cf 93       	push	r28
    1668:	e5 b3       	in	r30, 0x15	; 21
    166a:	fe 2f       	mov	r31, r30
    166c:	68 94       	set
    166e:	e7 f9       	bld	r30, 7
    1670:	e8 94       	clt
    1672:	f7 f9       	bld	r31, 7
    1674:	8b bb       	out	0x1b, r24	; 27
    1676:	92 bb       	out	0x12, r25	; 18
    1678:	d7 01       	movw	r26, r14
    167a:	b6 95       	lsr	r27
    167c:	a7 95       	ror	r26
    167e:	41 50       	subi	r20, 0x01	; 1
    1680:	50 40       	sbci	r21, 0x00	; 0
    1682:	02 c0       	rjmp	.+4      	; 0x1688 <fastlineBNP+0x22>
    1684:	61 50       	subi	r22, 0x01	; 1
    1686:	70 40       	sbci	r23, 0x00	; 0
    1688:	64 17       	cp	r22, r20
    168a:	75 07       	cpc	r23, r21
    168c:	81 f1       	breq	.+96     	; 0x16ee <fastlineBNP+0x88>
    168e:	f5 bb       	out	0x15, r31	; 21
    1690:	e5 bb       	out	0x15, r30	; 21
    1692:	ac 0d       	add	r26, r12
    1694:	bd 1d       	adc	r27, r13
    1696:	ae 15       	cp	r26, r14
    1698:	bf 05       	cpc	r27, r15
    169a:	a0 f3       	brcs	.-24     	; 0x1684 <fastlineBNP+0x1e>
    169c:	ae 19       	sub	r26, r14
    169e:	bf 09       	sbc	r27, r15
    16a0:	61 50       	subi	r22, 0x01	; 1
    16a2:	70 40       	sbci	r23, 0x00	; 0
    16a4:	2f 5f       	subi	r18, 0xFF	; 255
    16a6:	3f 4f       	sbci	r19, 0xFF	; 255
    16a8:	ae 98       	cbi	0x15, 6	; 21
    16aa:	c0 e0       	ldi	r28, 0x00	; 0
    16ac:	c2 bb       	out	0x12, r28	; 18
    16ae:	ce e4       	ldi	r28, 0x4E	; 78
    16b0:	cb bb       	out	0x1b, r28	; 27
    16b2:	af 98       	cbi	0x15, 7	; 21
    16b4:	af 9a       	sbi	0x15, 7	; 21
    16b6:	ae 9a       	sbi	0x15, 6	; 21
    16b8:	72 bb       	out	0x12, r23	; 18
    16ba:	6b bb       	out	0x1b, r22	; 27
    16bc:	af 98       	cbi	0x15, 7	; 21
    16be:	af 9a       	sbi	0x15, 7	; 21
    16c0:	ae 98       	cbi	0x15, 6	; 21
    16c2:	c0 e0       	ldi	r28, 0x00	; 0
    16c4:	c2 bb       	out	0x12, r28	; 18
    16c6:	cf e4       	ldi	r28, 0x4F	; 79
    16c8:	cb bb       	out	0x1b, r28	; 27
    16ca:	af 98       	cbi	0x15, 7	; 21
    16cc:	af 9a       	sbi	0x15, 7	; 21
    16ce:	ae 9a       	sbi	0x15, 6	; 21
    16d0:	32 bb       	out	0x12, r19	; 18
    16d2:	2b bb       	out	0x1b, r18	; 27
    16d4:	af 98       	cbi	0x15, 7	; 21
    16d6:	af 9a       	sbi	0x15, 7	; 21
    16d8:	ae 98       	cbi	0x15, 6	; 21
    16da:	c0 e0       	ldi	r28, 0x00	; 0
    16dc:	c2 bb       	out	0x12, r28	; 18
    16de:	c2 e2       	ldi	r28, 0x22	; 34
    16e0:	cb bb       	out	0x1b, r28	; 27
    16e2:	af 98       	cbi	0x15, 7	; 21
    16e4:	af 9a       	sbi	0x15, 7	; 21
    16e6:	ae 9a       	sbi	0x15, 6	; 21
    16e8:	8b bb       	out	0x1b, r24	; 27
    16ea:	92 bb       	out	0x12, r25	; 18
    16ec:	cd cf       	rjmp	.-102    	; 0x1688 <fastlineBNP+0x22>
    16ee:	cf 91       	pop	r28
    16f0:	08 95       	ret

000016f2 <fastlineBNN>:

fastlineBNN:
FAST_LINE_B SUB16 SUB16
    16f2:	cf 93       	push	r28
    16f4:	e5 b3       	in	r30, 0x15	; 21
    16f6:	fe 2f       	mov	r31, r30
    16f8:	68 94       	set
    16fa:	e7 f9       	bld	r30, 7
    16fc:	e8 94       	clt
    16fe:	f7 f9       	bld	r31, 7
    1700:	8b bb       	out	0x1b, r24	; 27
    1702:	92 bb       	out	0x12, r25	; 18
    1704:	d7 01       	movw	r26, r14
    1706:	b6 95       	lsr	r27
    1708:	a7 95       	ror	r26
    170a:	41 50       	subi	r20, 0x01	; 1
    170c:	50 40       	sbci	r21, 0x00	; 0
    170e:	02 c0       	rjmp	.+4      	; 0x1714 <fastlineBNN+0x22>
    1710:	61 50       	subi	r22, 0x01	; 1
    1712:	70 40       	sbci	r23, 0x00	; 0
    1714:	64 17       	cp	r22, r20
    1716:	75 07       	cpc	r23, r21
    1718:	81 f1       	breq	.+96     	; 0x177a <fastlineBNN+0x88>
    171a:	f5 bb       	out	0x15, r31	; 21
    171c:	e5 bb       	out	0x15, r30	; 21
    171e:	ac 0d       	add	r26, r12
    1720:	bd 1d       	adc	r27, r13
    1722:	ae 15       	cp	r26, r14
    1724:	bf 05       	cpc	r27, r15
    1726:	a0 f3       	brcs	.-24     	; 0x1710 <fastlineBNN+0x1e>
    1728:	ae 19       	sub	r26, r14
    172a:	bf 09       	sbc	r27, r15
    172c:	61 50       	subi	r22, 0x01	; 1
    172e:	70 40       	sbci	r23, 0x00	; 0
    1730:	21 50       	subi	r18, 0x01	; 1
    1732:	30 40       	sbci	r19, 0x00	; 0
    1734:	ae 98       	cbi	0x15, 6	; 21
    1736:	c0 e0       	ldi	r28, 0x00	; 0
    1738:	c2 bb       	out	0x12, r28	; 18
    173a:	ce e4       	ldi	r28, 0x4E	; 78
    173c:	cb bb       	out	0x1b, r28	; 27
    173e:	af 98       	cbi	0x15, 7	; 21
    1740:	af 9a       	sbi	0x15, 7	; 21
    1742:	ae 9a       	sbi	0x15, 6	; 21
    1744:	72 bb       	out	0x12, r23	; 18
    1746:	6b bb       	out	0x1b, r22	; 27
    1748:	af 98       	cbi	0x15, 7	; 21
    174a:	af 9a       	sbi	0x15, 7	; 21
    174c:	ae 98       	cbi	0x15, 6	; 21
    174e:	c0 e0       	ldi	r28, 0x00	; 0
    1750:	c2 bb       	out	0x12, r28	; 18
    1752:	cf e4       	ldi	r28, 0x4F	; 79
    1754:	cb bb       	out	0x1b, r28	; 27
    1756:	af 98       	cbi	0x15, 7	; 21
    1758:	af 9a       	sbi	0x15, 7	; 21
    175a:	ae 9a       	sbi	0x15, 6	; 21
    175c:	32 bb       	out	0x12, r19	; 18
    175e:	2b bb       	out	0x1b, r18	; 27
    1760:	af 98       	cbi	0x15, 7	; 21
    1762:	af 9a       	sbi	0x15, 7	; 21
    1764:	ae 98       	cbi	0x15, 6	; 21
    1766:	c0 e0       	ldi	r28, 0x00	; 0
    1768:	c2 bb       	out	0x12, r28	; 18
    176a:	c2 e2       	ldi	r28, 0x22	; 34
    176c:	cb bb       	out	0x1b, r28	; 27
    176e:	af 98       	cbi	0x15, 7	; 21
    1770:	af 9a       	sbi	0x15, 7	; 21
    1772:	ae 9a       	sbi	0x15, 6	; 21
    1774:	8b bb       	out	0x1b, r24	; 27
    1776:	92 bb       	out	0x12, r25	; 18
    1778:	cd cf       	rjmp	.-102    	; 0x1714 <fastlineBNN+0x22>
    177a:	cf 91       	pop	r28
    177c:	08 95       	ret

0000177e <_Z41__static_initialization_and_destruction_0ii>:
			drawScoreHighlight();
			displayGUI(1);
			displayQuestion(questionsEasy[step], & jokerFiftyUsed, 1);
		}
	}
    177e:	01 97       	sbiw	r24, 0x01	; 1
    1780:	09 f0       	breq	.+2      	; 0x1784 <_Z41__static_initialization_and_destruction_0ii+0x6>
    1782:	0f c1       	rjmp	.+542    	; 0x19a2 <_Z41__static_initialization_and_destruction_0ii+0x224>
    1784:	6f 3f       	cpi	r22, 0xFF	; 255
    1786:	7f 4f       	sbci	r23, 0xFF	; 255
    1788:	09 f0       	breq	.+2      	; 0x178c <_Z41__static_initialization_and_destruction_0ii+0xe>
    178a:	0b c1       	rjmp	.+534    	; 0x19a2 <_Z41__static_initialization_and_destruction_0ii+0x224>
#define RIGHT_ARROW 280, 222

/*
* Global variables
*/
UTFT display; //Display class
    178c:	8e ea       	ldi	r24, 0xAE	; 174
    178e:	93 e0       	ldi	r25, 0x03	; 3
    1790:	0e 94 e2 12 	call	0x25c4	; 0x25c4 <_ZN4UTFTC1Ev>
	char * b;
	char * c;
	char * d;
	uint8_t correctAns;

	objectQuestion(char * question, char * a, char * b, char * c, char * d, uint8_t correctAns): question(question), a(a), b(b), c(c), d(d), correctAns(correctAns) {}
    1794:	ee e3       	ldi	r30, 0x3E	; 62
    1796:	f3 e0       	ldi	r31, 0x03	; 3
    1798:	81 e6       	ldi	r24, 0x61	; 97
    179a:	90 e0       	ldi	r25, 0x00	; 0
    179c:	91 83       	std	Z+1, r25	; 0x01
    179e:	80 83       	st	Z, r24
    17a0:	84 e8       	ldi	r24, 0x84	; 132
    17a2:	90 e0       	ldi	r25, 0x00	; 0
    17a4:	93 83       	std	Z+3, r25	; 0x03
    17a6:	82 83       	std	Z+2, r24	; 0x02
    17a8:	8b e8       	ldi	r24, 0x8B	; 139
    17aa:	90 e0       	ldi	r25, 0x00	; 0
    17ac:	95 83       	std	Z+5, r25	; 0x05
    17ae:	84 83       	std	Z+4, r24	; 0x04
    17b0:	82 e9       	ldi	r24, 0x92	; 146
    17b2:	90 e0       	ldi	r25, 0x00	; 0
    17b4:	97 83       	std	Z+7, r25	; 0x07
    17b6:	86 83       	std	Z+6, r24	; 0x06
    17b8:	89 e9       	ldi	r24, 0x99	; 153
    17ba:	90 e0       	ldi	r25, 0x00	; 0
    17bc:	91 87       	std	Z+9, r25	; 0x09
    17be:	80 87       	std	Z+8, r24	; 0x08
    17c0:	24 e0       	ldi	r18, 0x04	; 4
    17c2:	22 87       	std	Z+10, r18	; 0x0a
    17c4:	81 ea       	ldi	r24, 0xA1	; 161
    17c6:	90 e0       	ldi	r25, 0x00	; 0
    17c8:	94 87       	std	Z+12, r25	; 0x0c
    17ca:	83 87       	std	Z+11, r24	; 0x0b
    17cc:	8f eb       	ldi	r24, 0xBF	; 191
    17ce:	90 e0       	ldi	r25, 0x00	; 0
    17d0:	96 87       	std	Z+14, r25	; 0x0e
    17d2:	85 87       	std	Z+13, r24	; 0x0d
    17d4:	8a ec       	ldi	r24, 0xCA	; 202
    17d6:	90 e0       	ldi	r25, 0x00	; 0
    17d8:	90 8b       	std	Z+16, r25	; 0x10
    17da:	87 87       	std	Z+15, r24	; 0x0f
    17dc:	80 ed       	ldi	r24, 0xD0	; 208
    17de:	90 e0       	ldi	r25, 0x00	; 0
    17e0:	92 8b       	std	Z+18, r25	; 0x12
    17e2:	81 8b       	std	Z+17, r24	; 0x11
    17e4:	85 ed       	ldi	r24, 0xD5	; 213
    17e6:	90 e0       	ldi	r25, 0x00	; 0
    17e8:	94 8b       	std	Z+20, r25	; 0x14
    17ea:	83 8b       	std	Z+19, r24	; 0x13
    17ec:	83 e0       	ldi	r24, 0x03	; 3
    17ee:	85 8b       	std	Z+21, r24	; 0x15
    17f0:	8d ed       	ldi	r24, 0xDD	; 221
    17f2:	90 e0       	ldi	r25, 0x00	; 0
    17f4:	97 8b       	std	Z+23, r25	; 0x17
    17f6:	86 8b       	std	Z+22, r24	; 0x16
    17f8:	8d ef       	ldi	r24, 0xFD	; 253
    17fa:	90 e0       	ldi	r25, 0x00	; 0
    17fc:	91 8f       	std	Z+25, r25	; 0x19
    17fe:	80 8f       	std	Z+24, r24	; 0x18
    1800:	83 e0       	ldi	r24, 0x03	; 3
    1802:	91 e0       	ldi	r25, 0x01	; 1
    1804:	93 8f       	std	Z+27, r25	; 0x1b
    1806:	82 8f       	std	Z+26, r24	; 0x1a
    1808:	89 e0       	ldi	r24, 0x09	; 9
    180a:	91 e0       	ldi	r25, 0x01	; 1
    180c:	95 8f       	std	Z+29, r25	; 0x1d
    180e:	84 8f       	std	Z+28, r24	; 0x1c
    1810:	8f e0       	ldi	r24, 0x0F	; 15
    1812:	91 e0       	ldi	r25, 0x01	; 1
    1814:	97 8f       	std	Z+31, r25	; 0x1f
    1816:	86 8f       	std	Z+30, r24	; 0x1e
    1818:	82 e0       	ldi	r24, 0x02	; 2
    181a:	80 a3       	std	Z+32, r24	; 0x20
    181c:	46 e1       	ldi	r20, 0x16	; 22
    181e:	51 e0       	ldi	r21, 0x01	; 1
    1820:	52 a3       	std	Z+34, r21	; 0x22
    1822:	41 a3       	std	Z+33, r20	; 0x21
    1824:	45 e3       	ldi	r20, 0x35	; 53
    1826:	51 e0       	ldi	r21, 0x01	; 1
    1828:	54 a3       	std	Z+36, r21	; 0x24
    182a:	43 a3       	std	Z+35, r20	; 0x23
    182c:	4b e3       	ldi	r20, 0x3B	; 59
    182e:	51 e0       	ldi	r21, 0x01	; 1
    1830:	56 a3       	std	Z+38, r21	; 0x26
    1832:	45 a3       	std	Z+37, r20	; 0x25
    1834:	43 e4       	ldi	r20, 0x43	; 67
    1836:	51 e0       	ldi	r21, 0x01	; 1
    1838:	50 a7       	std	Z+40, r21	; 0x28
    183a:	47 a3       	std	Z+39, r20	; 0x27
    183c:	49 e4       	ldi	r20, 0x49	; 73
    183e:	51 e0       	ldi	r21, 0x01	; 1
    1840:	52 a7       	std	Z+42, r21	; 0x2a
    1842:	41 a7       	std	Z+41, r20	; 0x29
    1844:	91 e0       	ldi	r25, 0x01	; 1
    1846:	93 a7       	std	Z+43, r25	; 0x2b
    1848:	41 e5       	ldi	r20, 0x51	; 81
    184a:	51 e0       	ldi	r21, 0x01	; 1
    184c:	55 a7       	std	Z+45, r21	; 0x2d
    184e:	44 a7       	std	Z+44, r20	; 0x2c
    1850:	4d e8       	ldi	r20, 0x8D	; 141
    1852:	51 e0       	ldi	r21, 0x01	; 1
    1854:	57 a7       	std	Z+47, r21	; 0x2f
    1856:	46 a7       	std	Z+46, r20	; 0x2e
    1858:	41 e9       	ldi	r20, 0x91	; 145
    185a:	51 e0       	ldi	r21, 0x01	; 1
    185c:	51 ab       	std	Z+49, r21	; 0x31
    185e:	40 ab       	std	Z+48, r20	; 0x30
    1860:	45 e9       	ldi	r20, 0x95	; 149
    1862:	51 e0       	ldi	r21, 0x01	; 1
    1864:	53 ab       	std	Z+51, r21	; 0x33
    1866:	42 ab       	std	Z+50, r20	; 0x32
    1868:	49 e9       	ldi	r20, 0x99	; 153
    186a:	51 e0       	ldi	r21, 0x01	; 1
    186c:	55 ab       	std	Z+53, r21	; 0x35
    186e:	44 ab       	std	Z+52, r20	; 0x34
    1870:	96 ab       	std	Z+54, r25	; 0x36
    1872:	4e e9       	ldi	r20, 0x9E	; 158
    1874:	51 e0       	ldi	r21, 0x01	; 1
    1876:	50 af       	std	Z+56, r21	; 0x38
    1878:	47 ab       	std	Z+55, r20	; 0x37
    187a:	41 ed       	ldi	r20, 0xD1	; 209
    187c:	51 e0       	ldi	r21, 0x01	; 1
    187e:	52 af       	std	Z+58, r21	; 0x3a
    1880:	41 af       	std	Z+57, r20	; 0x39
    1882:	46 ed       	ldi	r20, 0xD6	; 214
    1884:	51 e0       	ldi	r21, 0x01	; 1
    1886:	54 af       	std	Z+60, r21	; 0x3c
    1888:	43 af       	std	Z+59, r20	; 0x3b
    188a:	4b ed       	ldi	r20, 0xDB	; 219
    188c:	51 e0       	ldi	r21, 0x01	; 1
    188e:	56 af       	std	Z+62, r21	; 0x3e
    1890:	45 af       	std	Z+61, r20	; 0x3d
    1892:	40 ee       	ldi	r20, 0xE0	; 224
    1894:	51 e0       	ldi	r21, 0x01	; 1
    1896:	50 93 7e 03 	sts	0x037E, r21	; 0x80037e <__data_end+0x40>
    189a:	40 93 7d 03 	sts	0x037D, r20	; 0x80037d <__data_end+0x3f>
    189e:	80 93 7f 03 	sts	0x037F, r24	; 0x80037f <__data_end+0x41>
    18a2:	45 ee       	ldi	r20, 0xE5	; 229
    18a4:	51 e0       	ldi	r21, 0x01	; 1
    18a6:	50 93 81 03 	sts	0x0381, r21	; 0x800381 <__data_end+0x43>
    18aa:	40 93 80 03 	sts	0x0380, r20	; 0x800380 <__data_end+0x42>
    18ae:	4e e0       	ldi	r20, 0x0E	; 14
    18b0:	52 e0       	ldi	r21, 0x02	; 2
    18b2:	50 93 83 03 	sts	0x0383, r21	; 0x800383 <__data_end+0x45>
    18b6:	40 93 82 03 	sts	0x0382, r20	; 0x800382 <__data_end+0x44>
    18ba:	43 e1       	ldi	r20, 0x13	; 19
    18bc:	52 e0       	ldi	r21, 0x02	; 2
    18be:	50 93 85 03 	sts	0x0385, r21	; 0x800385 <__data_end+0x47>
    18c2:	40 93 84 03 	sts	0x0384, r20	; 0x800384 <__data_end+0x46>
    18c6:	48 e1       	ldi	r20, 0x18	; 24
    18c8:	52 e0       	ldi	r21, 0x02	; 2
    18ca:	50 93 87 03 	sts	0x0387, r21	; 0x800387 <__data_end+0x49>
    18ce:	40 93 86 03 	sts	0x0386, r20	; 0x800386 <__data_end+0x48>
    18d2:	4d e1       	ldi	r20, 0x1D	; 29
    18d4:	52 e0       	ldi	r21, 0x02	; 2
    18d6:	50 93 89 03 	sts	0x0389, r21	; 0x800389 <__data_end+0x4b>
    18da:	40 93 88 03 	sts	0x0388, r20	; 0x800388 <__data_end+0x4a>
    18de:	80 93 8a 03 	sts	0x038A, r24	; 0x80038a <__data_end+0x4c>
    18e2:	42 e2       	ldi	r20, 0x22	; 34
    18e4:	52 e0       	ldi	r21, 0x02	; 2
    18e6:	50 93 8c 03 	sts	0x038C, r21	; 0x80038c <__data_end+0x4e>
    18ea:	40 93 8b 03 	sts	0x038B, r20	; 0x80038b <__data_end+0x4d>
    18ee:	4f e4       	ldi	r20, 0x4F	; 79
    18f0:	51 e0       	ldi	r21, 0x01	; 1
    18f2:	50 93 8e 03 	sts	0x038E, r21	; 0x80038e <__data_end+0x50>
    18f6:	40 93 8d 03 	sts	0x038D, r20	; 0x80038d <__data_end+0x4f>
    18fa:	41 e5       	ldi	r20, 0x51	; 81
    18fc:	52 e0       	ldi	r21, 0x02	; 2
    18fe:	50 93 90 03 	sts	0x0390, r21	; 0x800390 <__data_end+0x52>
    1902:	40 93 8f 03 	sts	0x038F, r20	; 0x80038f <__data_end+0x51>
    1906:	44 e5       	ldi	r20, 0x54	; 84
    1908:	52 e0       	ldi	r21, 0x02	; 2
    190a:	50 93 92 03 	sts	0x0392, r21	; 0x800392 <__data_end+0x54>
    190e:	40 93 91 03 	sts	0x0391, r20	; 0x800391 <__data_end+0x53>
    1912:	47 e4       	ldi	r20, 0x47	; 71
    1914:	51 e0       	ldi	r21, 0x01	; 1
    1916:	50 93 94 03 	sts	0x0394, r21	; 0x800394 <__data_end+0x56>
    191a:	40 93 93 03 	sts	0x0393, r20	; 0x800393 <__data_end+0x55>
    191e:	20 93 95 03 	sts	0x0395, r18	; 0x800395 <__data_end+0x57>
    1922:	27 e5       	ldi	r18, 0x57	; 87
    1924:	32 e0       	ldi	r19, 0x02	; 2
    1926:	30 93 97 03 	sts	0x0397, r19	; 0x800397 <__data_end+0x59>
    192a:	20 93 96 03 	sts	0x0396, r18	; 0x800396 <__data_end+0x58>
    192e:	2f e7       	ldi	r18, 0x7F	; 127
    1930:	32 e0       	ldi	r19, 0x02	; 2
    1932:	30 93 99 03 	sts	0x0399, r19	; 0x800399 <__data_end+0x5b>
    1936:	20 93 98 03 	sts	0x0398, r18	; 0x800398 <__data_end+0x5a>
    193a:	24 e8       	ldi	r18, 0x84	; 132
    193c:	32 e0       	ldi	r19, 0x02	; 2
    193e:	30 93 9b 03 	sts	0x039B, r19	; 0x80039b <__data_end+0x5d>
    1942:	20 93 9a 03 	sts	0x039A, r18	; 0x80039a <__data_end+0x5c>
    1946:	2b e8       	ldi	r18, 0x8B	; 139
    1948:	32 e0       	ldi	r19, 0x02	; 2
    194a:	30 93 9d 03 	sts	0x039D, r19	; 0x80039d <__data_end+0x5f>
    194e:	20 93 9c 03 	sts	0x039C, r18	; 0x80039c <__data_end+0x5e>
    1952:	20 e9       	ldi	r18, 0x90	; 144
    1954:	32 e0       	ldi	r19, 0x02	; 2
    1956:	30 93 9f 03 	sts	0x039F, r19	; 0x80039f <__data_end+0x61>
    195a:	20 93 9e 03 	sts	0x039E, r18	; 0x80039e <__data_end+0x60>
    195e:	80 93 a0 03 	sts	0x03A0, r24	; 0x8003a0 <__data_end+0x62>
    1962:	27 e9       	ldi	r18, 0x97	; 151
    1964:	32 e0       	ldi	r19, 0x02	; 2
    1966:	30 93 a2 03 	sts	0x03A2, r19	; 0x8003a2 <__data_end+0x64>
    196a:	20 93 a1 03 	sts	0x03A1, r18	; 0x8003a1 <__data_end+0x63>
    196e:	2d ea       	ldi	r18, 0xAD	; 173
    1970:	32 e0       	ldi	r19, 0x02	; 2
    1972:	30 93 a4 03 	sts	0x03A4, r19	; 0x8003a4 <__data_end+0x66>
    1976:	20 93 a3 03 	sts	0x03A3, r18	; 0x8003a3 <__data_end+0x65>
    197a:	25 eb       	ldi	r18, 0xB5	; 181
    197c:	32 e0       	ldi	r19, 0x02	; 2
    197e:	30 93 a6 03 	sts	0x03A6, r19	; 0x8003a6 <__data_end+0x68>
    1982:	20 93 a5 03 	sts	0x03A5, r18	; 0x8003a5 <__data_end+0x67>
    1986:	2d eb       	ldi	r18, 0xBD	; 189
    1988:	32 e0       	ldi	r19, 0x02	; 2
    198a:	30 93 a8 03 	sts	0x03A8, r19	; 0x8003a8 <__data_end+0x6a>
    198e:	20 93 a7 03 	sts	0x03A7, r18	; 0x8003a7 <__data_end+0x69>
    1992:	24 ec       	ldi	r18, 0xC4	; 196
    1994:	32 e0       	ldi	r19, 0x02	; 2
    1996:	30 93 aa 03 	sts	0x03AA, r19	; 0x8003aa <__data_end+0x6c>
    199a:	20 93 a9 03 	sts	0x03A9, r18	; 0x8003a9 <__data_end+0x6b>
    199e:	90 93 ab 03 	sts	0x03AB, r25	; 0x8003ab <__data_end+0x6d>
    19a2:	08 95       	ret

000019a4 <_Z14displayCorrectv>:

/*
* Displays text on whole screen when the subject answers the question
*/

void displayCorrect() {
    19a4:	0f 93       	push	r16
    19a6:	1f 93       	push	r17
	display.clrScr();
    19a8:	8e ea       	ldi	r24, 0xAE	; 174
    19aa:	93 e0       	ldi	r25, 0x03	; 3
    19ac:	0e 94 3c 13 	call	0x2678	; 0x2678 <_ZN4UTFT6clrScrEv>
	display.setFont(BigFont);
    19b0:	62 e7       	ldi	r22, 0x72	; 114
    19b2:	70 e0       	ldi	r23, 0x00	; 0
    19b4:	8e ea       	ldi	r24, 0xAE	; 174
    19b6:	93 e0       	ldi	r25, 0x03	; 3
    19b8:	0e 94 76 1b 	call	0x36ec	; 0x36ec <_ZN4UTFT7setFontEPKh>
	display.fillScr(BLUE);
    19bc:	2c ec       	ldi	r18, 0xCC	; 204
    19be:	40 e0       	ldi	r20, 0x00	; 0
    19c0:	60 e0       	ldi	r22, 0x00	; 0
    19c2:	8e ea       	ldi	r24, 0xAE	; 174
    19c4:	93 e0       	ldi	r25, 0x03	; 3
    19c6:	0e 94 ae 13 	call	0x275c	; 0x275c <_ZN4UTFT7fillScrEhhh>
	display.setBackColor(BLUE);
    19ca:	2c ec       	ldi	r18, 0xCC	; 204
    19cc:	40 e0       	ldi	r20, 0x00	; 0
    19ce:	60 e0       	ldi	r22, 0x00	; 0
    19d0:	8e ea       	ldi	r24, 0xAE	; 174
    19d2:	93 e0       	ldi	r25, 0x03	; 3
    19d4:	0e 94 e6 13 	call	0x27cc	; 0x27cc <_ZN4UTFT12setBackColorEhhh>
	if (step == 5) {
    19d8:	80 91 ad 03 	lds	r24, 0x03AD	; 0x8003ad <step>
    19dc:	85 30       	cpi	r24, 0x05	; 5
    19de:	01 f5       	brne	.+64     	; 0x1a20 <_Z14displayCorrectv+0x7c>
		display.printWithMargin("OSIGURALI STE", SECURED);
    19e0:	0f e0       	ldi	r16, 0x0F	; 15
    19e2:	10 e0       	ldi	r17, 0x00	; 0
    19e4:	2e e6       	ldi	r18, 0x6E	; 110
    19e6:	30 e0       	ldi	r19, 0x00	; 0
    19e8:	47 e3       	ldi	r20, 0x37	; 55
    19ea:	50 e0       	ldi	r21, 0x00	; 0
    19ec:	6b ec       	ldi	r22, 0xCB	; 203
    19ee:	72 e0       	ldi	r23, 0x02	; 2
    19f0:	8e ea       	ldi	r24, 0xAE	; 174
    19f2:	93 e0       	ldi	r25, 0x03	; 3
    19f4:	0e 94 d9 19 	call	0x33b2	; 0x33b2 <_ZN4UTFT15printWithMarginEPKciii>
		display.printWithMargin("16k KN", MESSAGE_16K);
    19f8:	2c e8       	ldi	r18, 0x8C	; 140
    19fa:	30 e0       	ldi	r19, 0x00	; 0
    19fc:	4e e6       	ldi	r20, 0x6E	; 110
    19fe:	50 e0       	ldi	r21, 0x00	; 0
    1a00:	69 ed       	ldi	r22, 0xD9	; 217
    1a02:	72 e0       	ldi	r23, 0x02	; 2
    1a04:	8e ea       	ldi	r24, 0xAE	; 174
    1a06:	93 e0       	ldi	r25, 0x03	; 3
    1a08:	0e 94 d9 19 	call	0x33b2	; 0x33b2 <_ZN4UTFT15printWithMarginEPKciii>
	#else
		//round up by default
		__ticks_dc = (uint32_t)(ceil(fabs(__tmp)));
	#endif

	__builtin_avr_delay_cycles(__ticks_dc);
    1a0c:	2f ef       	ldi	r18, 0xFF	; 255
    1a0e:	8f ef       	ldi	r24, 0xFF	; 255
    1a10:	9c e2       	ldi	r25, 0x2C	; 44
    1a12:	21 50       	subi	r18, 0x01	; 1
    1a14:	80 40       	sbci	r24, 0x00	; 0
    1a16:	90 40       	sbci	r25, 0x00	; 0
    1a18:	e1 f7       	brne	.-8      	; 0x1a12 <_Z14displayCorrectv+0x6e>
    1a1a:	00 c0       	rjmp	.+0      	; 0x1a1c <_Z14displayCorrectv+0x78>
    1a1c:	00 00       	nop
    1a1e:	35 c0       	rjmp	.+106    	; 0x1a8a <_Z14displayCorrectv+0xe6>
		_delay_ms(2000);
		} else if (step == 10) {
    1a20:	8a 30       	cpi	r24, 0x0A	; 10
    1a22:	c1 f4       	brne	.+48     	; 0x1a54 <_Z14displayCorrectv+0xb0>
		display.print("MILIJUNAS", MILLIONARE);
    1a24:	00 e0       	ldi	r16, 0x00	; 0
    1a26:	10 e0       	ldi	r17, 0x00	; 0
    1a28:	2e e6       	ldi	r18, 0x6E	; 110
    1a2a:	30 e0       	ldi	r19, 0x00	; 0
    1a2c:	40 e5       	ldi	r20, 0x50	; 80
    1a2e:	50 e0       	ldi	r21, 0x00	; 0
    1a30:	60 ee       	ldi	r22, 0xE0	; 224
    1a32:	72 e0       	ldi	r23, 0x02	; 2
    1a34:	8e ea       	ldi	r24, 0xAE	; 174
    1a36:	93 e0       	ldi	r25, 0x03	; 3
    1a38:	0e 94 fe 18 	call	0x31fc	; 0x31fc <_ZN4UTFT5printEPKciii>
		step = 0;
    1a3c:	10 92 ad 03 	sts	0x03AD, r1	; 0x8003ad <step>
    1a40:	2f ef       	ldi	r18, 0xFF	; 255
    1a42:	8f ef       	ldi	r24, 0xFF	; 255
    1a44:	90 ee       	ldi	r25, 0xE0	; 224
    1a46:	21 50       	subi	r18, 0x01	; 1
    1a48:	80 40       	sbci	r24, 0x00	; 0
    1a4a:	90 40       	sbci	r25, 0x00	; 0
    1a4c:	e1 f7       	brne	.-8      	; 0x1a46 <_Z14displayCorrectv+0xa2>
    1a4e:	00 c0       	rjmp	.+0      	; 0x1a50 <_Z14displayCorrectv+0xac>
    1a50:	00 00       	nop
    1a52:	1b c0       	rjmp	.+54     	; 0x1a8a <_Z14displayCorrectv+0xe6>
		_delay_ms(10000);
		} else if (step == 0) {
    1a54:	81 11       	cpse	r24, r1
    1a56:	0d c0       	rjmp	.+26     	; 0x1a72 <_Z14displayCorrectv+0xce>
		display.print("NETOCNO", CORRECT);
    1a58:	00 e0       	ldi	r16, 0x00	; 0
    1a5a:	10 e0       	ldi	r17, 0x00	; 0
    1a5c:	2e e6       	ldi	r18, 0x6E	; 110
    1a5e:	30 e0       	ldi	r19, 0x00	; 0
    1a60:	44 e6       	ldi	r20, 0x64	; 100
    1a62:	50 e0       	ldi	r21, 0x00	; 0
    1a64:	6a ee       	ldi	r22, 0xEA	; 234
    1a66:	72 e0       	ldi	r23, 0x02	; 2
    1a68:	8e ea       	ldi	r24, 0xAE	; 174
    1a6a:	93 e0       	ldi	r25, 0x03	; 3
    1a6c:	0e 94 fe 18 	call	0x31fc	; 0x31fc <_ZN4UTFT5printEPKciii>
    1a70:	0c c0       	rjmp	.+24     	; 0x1a8a <_Z14displayCorrectv+0xe6>
	} else display.print("TOCNO", INCORRECT);
    1a72:	00 e0       	ldi	r16, 0x00	; 0
    1a74:	10 e0       	ldi	r17, 0x00	; 0
    1a76:	2e e6       	ldi	r18, 0x6E	; 110
    1a78:	30 e0       	ldi	r19, 0x00	; 0
    1a7a:	4e e6       	ldi	r20, 0x6E	; 110
    1a7c:	50 e0       	ldi	r21, 0x00	; 0
    1a7e:	6c ee       	ldi	r22, 0xEC	; 236
    1a80:	72 e0       	ldi	r23, 0x02	; 2
    1a82:	8e ea       	ldi	r24, 0xAE	; 174
    1a84:	93 e0       	ldi	r25, 0x03	; 3
    1a86:	0e 94 fe 18 	call	0x31fc	; 0x31fc <_ZN4UTFT5printEPKciii>
	display.setFont(SmallFont);
    1a8a:	66 e5       	ldi	r22, 0x56	; 86
    1a8c:	7c e0       	ldi	r23, 0x0C	; 12
    1a8e:	8e ea       	ldi	r24, 0xAE	; 174
    1a90:	93 e0       	ldi	r25, 0x03	; 3
    1a92:	0e 94 76 1b 	call	0x36ec	; 0x36ec <_ZN4UTFT7setFontEPKh>
    1a96:	2f ef       	ldi	r18, 0xFF	; 255
    1a98:	8f e7       	ldi	r24, 0x7F	; 127
    1a9a:	96 e1       	ldi	r25, 0x16	; 22
    1a9c:	21 50       	subi	r18, 0x01	; 1
    1a9e:	80 40       	sbci	r24, 0x00	; 0
    1aa0:	90 40       	sbci	r25, 0x00	; 0
    1aa2:	e1 f7       	brne	.-8      	; 0x1a9c <_Z14displayCorrectv+0xf8>
    1aa4:	00 c0       	rjmp	.+0      	; 0x1aa6 <_Z14displayCorrectv+0x102>
    1aa6:	00 00       	nop
	_delay_ms(1000);
	display.clrScr();
    1aa8:	8e ea       	ldi	r24, 0xAE	; 174
    1aaa:	93 e0       	ldi	r25, 0x03	; 3
    1aac:	0e 94 3c 13 	call	0x2678	; 0x2678 <_ZN4UTFT6clrScrEv>
}
    1ab0:	1f 91       	pop	r17
    1ab2:	0f 91       	pop	r16
    1ab4:	08 95       	ret

00001ab6 <_Z18drawScoreHighlightv>:

/*
* Displays highlighter around the score depending on the question
*/

void drawScoreHighlight() {
    1ab6:	0f 93       	push	r16
    1ab8:	1f 93       	push	r17

	display.setColor(YELLOW);
    1aba:	20 e0       	ldi	r18, 0x00	; 0
    1abc:	4f ef       	ldi	r20, 0xFF	; 255
    1abe:	66 ef       	ldi	r22, 0xF6	; 246
    1ac0:	8e ea       	ldi	r24, 0xAE	; 174
    1ac2:	93 e0       	ldi	r25, 0x03	; 3
    1ac4:	0e 94 c3 13 	call	0x2786	; 0x2786 <_ZN4UTFT8setColorEhhh>
	if (step >= 6) display.fillRoundRect(5 + 50 * (step % 5), 235, 52 + 50 * (step % 5), 218);
    1ac8:	60 91 ad 03 	lds	r22, 0x03AD	; 0x8003ad <step>
    1acc:	66 30       	cpi	r22, 0x06	; 6
    1ace:	e0 f0       	brcs	.+56     	; 0x1b08 <_Z18drawScoreHighlightv+0x52>
    1ad0:	8d ec       	ldi	r24, 0xCD	; 205
    1ad2:	68 9f       	mul	r22, r24
    1ad4:	81 2d       	mov	r24, r1
    1ad6:	11 24       	eor	r1, r1
    1ad8:	86 95       	lsr	r24
    1ada:	86 95       	lsr	r24
    1adc:	98 2f       	mov	r25, r24
    1ade:	99 0f       	add	r25, r25
    1ae0:	99 0f       	add	r25, r25
    1ae2:	89 0f       	add	r24, r25
    1ae4:	68 1b       	sub	r22, r24
    1ae6:	82 e3       	ldi	r24, 0x32	; 50
    1ae8:	68 9f       	mul	r22, r24
    1aea:	b0 01       	movw	r22, r0
    1aec:	11 24       	eor	r1, r1
    1aee:	9b 01       	movw	r18, r22
    1af0:	2c 5c       	subi	r18, 0xCC	; 204
    1af2:	3f 4f       	sbci	r19, 0xFF	; 255
    1af4:	6b 5f       	subi	r22, 0xFB	; 251
    1af6:	7f 4f       	sbci	r23, 0xFF	; 255
    1af8:	0a ed       	ldi	r16, 0xDA	; 218
    1afa:	10 e0       	ldi	r17, 0x00	; 0
    1afc:	4b ee       	ldi	r20, 0xEB	; 235
    1afe:	50 e0       	ldi	r21, 0x00	; 0
    1b00:	8e ea       	ldi	r24, 0xAE	; 174
    1b02:	93 e0       	ldi	r25, 0x03	; 3
    1b04:	0e 94 54 14 	call	0x28a8	; 0x28a8 <_ZN4UTFT13fillRoundRectEiiii>
	display.fillRoundRect(5 + 50 * (step % 5), 235, 40 + 50 * (step % 5), 218);
    1b08:	60 91 ad 03 	lds	r22, 0x03AD	; 0x8003ad <step>
    1b0c:	8d ec       	ldi	r24, 0xCD	; 205
    1b0e:	68 9f       	mul	r22, r24
    1b10:	81 2d       	mov	r24, r1
    1b12:	11 24       	eor	r1, r1
    1b14:	86 95       	lsr	r24
    1b16:	86 95       	lsr	r24
    1b18:	98 2f       	mov	r25, r24
    1b1a:	99 0f       	add	r25, r25
    1b1c:	99 0f       	add	r25, r25
    1b1e:	89 0f       	add	r24, r25
    1b20:	68 1b       	sub	r22, r24
    1b22:	82 e3       	ldi	r24, 0x32	; 50
    1b24:	68 9f       	mul	r22, r24
    1b26:	b0 01       	movw	r22, r0
    1b28:	11 24       	eor	r1, r1
    1b2a:	9b 01       	movw	r18, r22
    1b2c:	28 5d       	subi	r18, 0xD8	; 216
    1b2e:	3f 4f       	sbci	r19, 0xFF	; 255
    1b30:	6b 5f       	subi	r22, 0xFB	; 251
    1b32:	7f 4f       	sbci	r23, 0xFF	; 255
    1b34:	0a ed       	ldi	r16, 0xDA	; 218
    1b36:	10 e0       	ldi	r17, 0x00	; 0
    1b38:	4b ee       	ldi	r20, 0xEB	; 235
    1b3a:	50 e0       	ldi	r21, 0x00	; 0
    1b3c:	8e ea       	ldi	r24, 0xAE	; 174
    1b3e:	93 e0       	ldi	r25, 0x03	; 3
    1b40:	0e 94 54 14 	call	0x28a8	; 0x28a8 <_ZN4UTFT13fillRoundRectEiiii>
	display.setColor(BLUE);
    1b44:	2c ec       	ldi	r18, 0xCC	; 204
    1b46:	40 e0       	ldi	r20, 0x00	; 0
    1b48:	60 e0       	ldi	r22, 0x00	; 0
    1b4a:	8e ea       	ldi	r24, 0xAE	; 174
    1b4c:	93 e0       	ldi	r25, 0x03	; 3
    1b4e:	0e 94 c3 13 	call	0x2786	; 0x2786 <_ZN4UTFT8setColorEhhh>
}
    1b52:	1f 91       	pop	r17
    1b54:	0f 91       	pop	r16
    1b56:	08 95       	ret

00001b58 <_Z10displayGUIh>:
/*
* Displays GUI elements
* Also used for displaying 50/50
*/

void displayGUI(uint8_t jokerFifty = 0) {
    1b58:	0f 93       	push	r16
    1b5a:	1f 93       	push	r17
    1b5c:	cf 93       	push	r28
    1b5e:	c8 2f       	mov	r28, r24
	display.drawLine(TOP_HORIZONTAL_LINE); // Top horizontal line
    1b60:	06 e4       	ldi	r16, 0x46	; 70
    1b62:	10 e0       	ldi	r17, 0x00	; 0
    1b64:	2b e3       	ldi	r18, 0x3B	; 59
    1b66:	31 e0       	ldi	r19, 0x01	; 1
    1b68:	46 e4       	ldi	r20, 0x46	; 70
    1b6a:	50 e0       	ldi	r21, 0x00	; 0
    1b6c:	60 e0       	ldi	r22, 0x00	; 0
    1b6e:	70 e0       	ldi	r23, 0x00	; 0
    1b70:	8e ea       	ldi	r24, 0xAE	; 174
    1b72:	93 e0       	ldi	r25, 0x03	; 3
    1b74:	0e 94 23 15 	call	0x2a46	; 0x2a46 <_ZN4UTFT8drawLineEiiii>
	display.drawLine(MIDDLE_VERTICAL_LINE); // Middle vertical line
    1b78:	02 ed       	ldi	r16, 0xD2	; 210
    1b7a:	10 e0       	ldi	r17, 0x00	; 0
    1b7c:	26 e9       	ldi	r18, 0x96	; 150
    1b7e:	30 e0       	ldi	r19, 0x00	; 0
    1b80:	46 e4       	ldi	r20, 0x46	; 70
    1b82:	50 e0       	ldi	r21, 0x00	; 0
    1b84:	66 e9       	ldi	r22, 0x96	; 150
    1b86:	70 e0       	ldi	r23, 0x00	; 0
    1b88:	8e ea       	ldi	r24, 0xAE	; 174
    1b8a:	93 e0       	ldi	r25, 0x03	; 3
    1b8c:	0e 94 23 15 	call	0x2a46	; 0x2a46 <_ZN4UTFT8drawLineEiiii>
	display.drawLine(MIDDLE_HORIZONTAL_LINE); // Middle horizontal line line
    1b90:	06 e9       	ldi	r16, 0x96	; 150
    1b92:	10 e0       	ldi	r17, 0x00	; 0
    1b94:	2b e3       	ldi	r18, 0x3B	; 59
    1b96:	31 e0       	ldi	r19, 0x01	; 1
    1b98:	46 e9       	ldi	r20, 0x96	; 150
    1b9a:	50 e0       	ldi	r21, 0x00	; 0
    1b9c:	60 e0       	ldi	r22, 0x00	; 0
    1b9e:	70 e0       	ldi	r23, 0x00	; 0
    1ba0:	8e ea       	ldi	r24, 0xAE	; 174
    1ba2:	93 e0       	ldi	r25, 0x03	; 3
    1ba4:	0e 94 23 15 	call	0x2a46	; 0x2a46 <_ZN4UTFT8drawLineEiiii>
	display.drawLine(BOTTOM_HORIZONTAL_LINE); // Bottom horizontal line
    1ba8:	02 ed       	ldi	r16, 0xD2	; 210
    1baa:	10 e0       	ldi	r17, 0x00	; 0
    1bac:	2b e3       	ldi	r18, 0x3B	; 59
    1bae:	31 e0       	ldi	r19, 0x01	; 1
    1bb0:	42 ed       	ldi	r20, 0xD2	; 210
    1bb2:	50 e0       	ldi	r21, 0x00	; 0
    1bb4:	60 e0       	ldi	r22, 0x00	; 0
    1bb6:	70 e0       	ldi	r23, 0x00	; 0
    1bb8:	8e ea       	ldi	r24, 0xAE	; 174
    1bba:	93 e0       	ldi	r25, 0x03	; 3
    1bbc:	0e 94 23 15 	call	0x2a46	; 0x2a46 <_ZN4UTFT8drawLineEiiii>

	display.setColor(YELLOW);
    1bc0:	20 e0       	ldi	r18, 0x00	; 0
    1bc2:	4f ef       	ldi	r20, 0xFF	; 255
    1bc4:	66 ef       	ldi	r22, 0xF6	; 246
    1bc6:	8e ea       	ldi	r24, 0xAE	; 174
    1bc8:	93 e0       	ldi	r25, 0x03	; 3
    1bca:	0e 94 c3 13 	call	0x2786	; 0x2786 <_ZN4UTFT8setColorEhhh>
	display.setFont(BigFont);
    1bce:	62 e7       	ldi	r22, 0x72	; 114
    1bd0:	70 e0       	ldi	r23, 0x00	; 0
    1bd2:	8e ea       	ldi	r24, 0xAE	; 174
    1bd4:	93 e0       	ldi	r25, 0x03	; 3
    1bd6:	0e 94 76 1b 	call	0x36ec	; 0x36ec <_ZN4UTFT7setFontEPKh>
	if (jokerFifty) {
    1bda:	cc 23       	and	r28, r28
    1bdc:	09 f4       	brne	.+2      	; 0x1be0 <_Z10displayGUIh+0x88>
    1bde:	6b c0       	rjmp	.+214    	; 0x1cb6 <_Z10displayGUIh+0x15e>
		if (1 == questionsEasy[step].correctAns) {
    1be0:	e0 91 ad 03 	lds	r30, 0x03AD	; 0x8003ad <step>
    1be4:	8b e0       	ldi	r24, 0x0B	; 11
    1be6:	e8 9f       	mul	r30, r24
    1be8:	f0 01       	movw	r30, r0
    1bea:	11 24       	eor	r1, r1
    1bec:	e2 5c       	subi	r30, 0xC2	; 194
    1bee:	fc 4f       	sbci	r31, 0xFC	; 252
    1bf0:	82 85       	ldd	r24, Z+10	; 0x0a
    1bf2:	81 30       	cpi	r24, 0x01	; 1
    1bf4:	b9 f4       	brne	.+46     	; 0x1c24 <_Z10displayGUIh+0xcc>
			display.print("A:", A_COORDINATE);
    1bf6:	00 e0       	ldi	r16, 0x00	; 0
    1bf8:	10 e0       	ldi	r17, 0x00	; 0
    1bfa:	24 e6       	ldi	r18, 0x64	; 100
    1bfc:	30 e0       	ldi	r19, 0x00	; 0
    1bfe:	4a e0       	ldi	r20, 0x0A	; 10
    1c00:	50 e0       	ldi	r21, 0x00	; 0
    1c02:	62 ef       	ldi	r22, 0xF2	; 242
    1c04:	72 e0       	ldi	r23, 0x02	; 2
    1c06:	8e ea       	ldi	r24, 0xAE	; 174
    1c08:	93 e0       	ldi	r25, 0x03	; 3
    1c0a:	0e 94 fe 18 	call	0x31fc	; 0x31fc <_ZN4UTFT5printEPKciii>
			display.print("D:", D_COORDINATE);
    1c0e:	2a ea       	ldi	r18, 0xAA	; 170
    1c10:	30 e0       	ldi	r19, 0x00	; 0
    1c12:	40 ea       	ldi	r20, 0xA0	; 160
    1c14:	50 e0       	ldi	r21, 0x00	; 0
    1c16:	65 ef       	ldi	r22, 0xF5	; 245
    1c18:	72 e0       	ldi	r23, 0x02	; 2
    1c1a:	8e ea       	ldi	r24, 0xAE	; 174
    1c1c:	93 e0       	ldi	r25, 0x03	; 3
    1c1e:	0e 94 fe 18 	call	0x31fc	; 0x31fc <_ZN4UTFT5printEPKciii>
    1c22:	73 c0       	rjmp	.+230    	; 0x1d0a <_Z10displayGUIh+0x1b2>
			} else if (2 == questionsEasy[step].correctAns) {
    1c24:	82 30       	cpi	r24, 0x02	; 2
    1c26:	b9 f4       	brne	.+46     	; 0x1c56 <_Z10displayGUIh+0xfe>
			display.print("C:", C_COORDINATE);
    1c28:	00 e0       	ldi	r16, 0x00	; 0
    1c2a:	10 e0       	ldi	r17, 0x00	; 0
    1c2c:	2a ea       	ldi	r18, 0xAA	; 170
    1c2e:	30 e0       	ldi	r19, 0x00	; 0
    1c30:	4a e0       	ldi	r20, 0x0A	; 10
    1c32:	50 e0       	ldi	r21, 0x00	; 0
    1c34:	68 ef       	ldi	r22, 0xF8	; 248
    1c36:	72 e0       	ldi	r23, 0x02	; 2
    1c38:	8e ea       	ldi	r24, 0xAE	; 174
    1c3a:	93 e0       	ldi	r25, 0x03	; 3
    1c3c:	0e 94 fe 18 	call	0x31fc	; 0x31fc <_ZN4UTFT5printEPKciii>
			display.print("D:", D_COORDINATE);
    1c40:	2a ea       	ldi	r18, 0xAA	; 170
    1c42:	30 e0       	ldi	r19, 0x00	; 0
    1c44:	40 ea       	ldi	r20, 0xA0	; 160
    1c46:	50 e0       	ldi	r21, 0x00	; 0
    1c48:	65 ef       	ldi	r22, 0xF5	; 245
    1c4a:	72 e0       	ldi	r23, 0x02	; 2
    1c4c:	8e ea       	ldi	r24, 0xAE	; 174
    1c4e:	93 e0       	ldi	r25, 0x03	; 3
    1c50:	0e 94 fe 18 	call	0x31fc	; 0x31fc <_ZN4UTFT5printEPKciii>
    1c54:	5a c0       	rjmp	.+180    	; 0x1d0a <_Z10displayGUIh+0x1b2>
			} else if (3 == questionsEasy[step].correctAns) {
    1c56:	83 30       	cpi	r24, 0x03	; 3
    1c58:	b9 f4       	brne	.+46     	; 0x1c88 <_Z10displayGUIh+0x130>
			display.print("B:", B_COORDINATE);
    1c5a:	00 e0       	ldi	r16, 0x00	; 0
    1c5c:	10 e0       	ldi	r17, 0x00	; 0
    1c5e:	24 e6       	ldi	r18, 0x64	; 100
    1c60:	30 e0       	ldi	r19, 0x00	; 0
    1c62:	40 ea       	ldi	r20, 0xA0	; 160
    1c64:	50 e0       	ldi	r21, 0x00	; 0
    1c66:	6b ef       	ldi	r22, 0xFB	; 251
    1c68:	72 e0       	ldi	r23, 0x02	; 2
    1c6a:	8e ea       	ldi	r24, 0xAE	; 174
    1c6c:	93 e0       	ldi	r25, 0x03	; 3
    1c6e:	0e 94 fe 18 	call	0x31fc	; 0x31fc <_ZN4UTFT5printEPKciii>
			display.print("A:", A_COORDINATE);
    1c72:	24 e6       	ldi	r18, 0x64	; 100
    1c74:	30 e0       	ldi	r19, 0x00	; 0
    1c76:	4a e0       	ldi	r20, 0x0A	; 10
    1c78:	50 e0       	ldi	r21, 0x00	; 0
    1c7a:	62 ef       	ldi	r22, 0xF2	; 242
    1c7c:	72 e0       	ldi	r23, 0x02	; 2
    1c7e:	8e ea       	ldi	r24, 0xAE	; 174
    1c80:	93 e0       	ldi	r25, 0x03	; 3
    1c82:	0e 94 fe 18 	call	0x31fc	; 0x31fc <_ZN4UTFT5printEPKciii>
    1c86:	41 c0       	rjmp	.+130    	; 0x1d0a <_Z10displayGUIh+0x1b2>
			} else {
			display.print("B:", B_COORDINATE);
    1c88:	00 e0       	ldi	r16, 0x00	; 0
    1c8a:	10 e0       	ldi	r17, 0x00	; 0
    1c8c:	24 e6       	ldi	r18, 0x64	; 100
    1c8e:	30 e0       	ldi	r19, 0x00	; 0
    1c90:	40 ea       	ldi	r20, 0xA0	; 160
    1c92:	50 e0       	ldi	r21, 0x00	; 0
    1c94:	6b ef       	ldi	r22, 0xFB	; 251
    1c96:	72 e0       	ldi	r23, 0x02	; 2
    1c98:	8e ea       	ldi	r24, 0xAE	; 174
    1c9a:	93 e0       	ldi	r25, 0x03	; 3
    1c9c:	0e 94 fe 18 	call	0x31fc	; 0x31fc <_ZN4UTFT5printEPKciii>
			display.print("D:", D_COORDINATE);
    1ca0:	2a ea       	ldi	r18, 0xAA	; 170
    1ca2:	30 e0       	ldi	r19, 0x00	; 0
    1ca4:	40 ea       	ldi	r20, 0xA0	; 160
    1ca6:	50 e0       	ldi	r21, 0x00	; 0
    1ca8:	65 ef       	ldi	r22, 0xF5	; 245
    1caa:	72 e0       	ldi	r23, 0x02	; 2
    1cac:	8e ea       	ldi	r24, 0xAE	; 174
    1cae:	93 e0       	ldi	r25, 0x03	; 3
    1cb0:	0e 94 fe 18 	call	0x31fc	; 0x31fc <_ZN4UTFT5printEPKciii>
    1cb4:	2a c0       	rjmp	.+84     	; 0x1d0a <_Z10displayGUIh+0x1b2>
		}
		} else {
		display.print("A:", A_COORDINATE);
    1cb6:	00 e0       	ldi	r16, 0x00	; 0
    1cb8:	10 e0       	ldi	r17, 0x00	; 0
    1cba:	24 e6       	ldi	r18, 0x64	; 100
    1cbc:	30 e0       	ldi	r19, 0x00	; 0
    1cbe:	4a e0       	ldi	r20, 0x0A	; 10
    1cc0:	50 e0       	ldi	r21, 0x00	; 0
    1cc2:	62 ef       	ldi	r22, 0xF2	; 242
    1cc4:	72 e0       	ldi	r23, 0x02	; 2
    1cc6:	8e ea       	ldi	r24, 0xAE	; 174
    1cc8:	93 e0       	ldi	r25, 0x03	; 3
    1cca:	0e 94 fe 18 	call	0x31fc	; 0x31fc <_ZN4UTFT5printEPKciii>
		display.print("B:", B_COORDINATE);
    1cce:	24 e6       	ldi	r18, 0x64	; 100
    1cd0:	30 e0       	ldi	r19, 0x00	; 0
    1cd2:	40 ea       	ldi	r20, 0xA0	; 160
    1cd4:	50 e0       	ldi	r21, 0x00	; 0
    1cd6:	6b ef       	ldi	r22, 0xFB	; 251
    1cd8:	72 e0       	ldi	r23, 0x02	; 2
    1cda:	8e ea       	ldi	r24, 0xAE	; 174
    1cdc:	93 e0       	ldi	r25, 0x03	; 3
    1cde:	0e 94 fe 18 	call	0x31fc	; 0x31fc <_ZN4UTFT5printEPKciii>
		display.print("C:", C_COORDINATE);
    1ce2:	2a ea       	ldi	r18, 0xAA	; 170
    1ce4:	30 e0       	ldi	r19, 0x00	; 0
    1ce6:	4a e0       	ldi	r20, 0x0A	; 10
    1ce8:	50 e0       	ldi	r21, 0x00	; 0
    1cea:	68 ef       	ldi	r22, 0xF8	; 248
    1cec:	72 e0       	ldi	r23, 0x02	; 2
    1cee:	8e ea       	ldi	r24, 0xAE	; 174
    1cf0:	93 e0       	ldi	r25, 0x03	; 3
    1cf2:	0e 94 fe 18 	call	0x31fc	; 0x31fc <_ZN4UTFT5printEPKciii>
		display.print("D:", D_COORDINATE);
    1cf6:	2a ea       	ldi	r18, 0xAA	; 170
    1cf8:	30 e0       	ldi	r19, 0x00	; 0
    1cfa:	40 ea       	ldi	r20, 0xA0	; 160
    1cfc:	50 e0       	ldi	r21, 0x00	; 0
    1cfe:	65 ef       	ldi	r22, 0xF5	; 245
    1d00:	72 e0       	ldi	r23, 0x02	; 2
    1d02:	8e ea       	ldi	r24, 0xAE	; 174
    1d04:	93 e0       	ldi	r25, 0x03	; 3
    1d06:	0e 94 fe 18 	call	0x31fc	; 0x31fc <_ZN4UTFT5printEPKciii>
	}

	display.setColor(WHITE);
    1d0a:	2f ef       	ldi	r18, 0xFF	; 255
    1d0c:	4f ef       	ldi	r20, 0xFF	; 255
    1d0e:	6f ef       	ldi	r22, 0xFF	; 255
    1d10:	8e ea       	ldi	r24, 0xAE	; 174
    1d12:	93 e0       	ldi	r25, 0x03	; 3
    1d14:	0e 94 c3 13 	call	0x2786	; 0x2786 <_ZN4UTFT8setColorEhhh>
	display.setFont(SmallFont);
    1d18:	66 e5       	ldi	r22, 0x56	; 86
    1d1a:	7c e0       	ldi	r23, 0x0C	; 12
    1d1c:	8e ea       	ldi	r24, 0xAE	; 174
    1d1e:	93 e0       	ldi	r25, 0x03	; 3
    1d20:	0e 94 76 1b 	call	0x36ec	; 0x36ec <_ZN4UTFT7setFontEPKh>
}
    1d24:	cf 91       	pop	r28
    1d26:	1f 91       	pop	r17
    1d28:	0f 91       	pop	r16
    1d2a:	08 95       	ret

00001d2c <_Z15displayQuestion14objectQuestionPhh>:
/*
* Displays question and option text
* Also used for displaying 50/50
*/

void displayQuestion(objectQuestion questionObj, uint8_t * jokerFiftyUsed = 0, uint8_t jokerFifty = 0) {
    1d2c:	af 92       	push	r10
    1d2e:	cf 92       	push	r12
    1d30:	df 92       	push	r13
    1d32:	ef 92       	push	r14
    1d34:	ff 92       	push	r15
    1d36:	0f 93       	push	r16
    1d38:	1f 93       	push	r17
    1d3a:	cf 93       	push	r28
    1d3c:	df 93       	push	r29
    1d3e:	cd b7       	in	r28, 0x3d	; 61
    1d40:	de b7       	in	r29, 0x3e	; 62
    1d42:	2b 97       	sbiw	r28, 0x0b	; 11
    1d44:	0f b6       	in	r0, 0x3f	; 63
    1d46:	f8 94       	cli
    1d48:	de bf       	out	0x3e, r29	; 62
    1d4a:	0f be       	out	0x3f, r0	; 63
    1d4c:	cd bf       	out	0x3d, r28	; 61
    1d4e:	e9 82       	std	Y+1, r14	; 0x01
    1d50:	fa 82       	std	Y+2, r15	; 0x02
    1d52:	0b 83       	std	Y+3, r16	; 0x03
    1d54:	1c 83       	std	Y+4, r17	; 0x04
    1d56:	2d 83       	std	Y+5, r18	; 0x05
    1d58:	3e 83       	std	Y+6, r19	; 0x06
    1d5a:	4f 83       	std	Y+7, r20	; 0x07
    1d5c:	58 87       	std	Y+8, r21	; 0x08
    1d5e:	69 87       	std	Y+9, r22	; 0x09
    1d60:	7a 87       	std	Y+10, r23	; 0x0a
    1d62:	8b 87       	std	Y+11, r24	; 0x0b
	display.printWithMargin(questionObj.question, 2, 0);
    1d64:	69 81       	ldd	r22, Y+1	; 0x01
    1d66:	7a 81       	ldd	r23, Y+2	; 0x02
    1d68:	07 e2       	ldi	r16, 0x27	; 39
    1d6a:	10 e0       	ldi	r17, 0x00	; 0
    1d6c:	20 e0       	ldi	r18, 0x00	; 0
    1d6e:	30 e0       	ldi	r19, 0x00	; 0
    1d70:	42 e0       	ldi	r20, 0x02	; 2
    1d72:	50 e0       	ldi	r21, 0x00	; 0
    1d74:	8e ea       	ldi	r24, 0xAE	; 174
    1d76:	93 e0       	ldi	r25, 0x03	; 3
    1d78:	0e 94 d9 19 	call	0x33b2	; 0x33b2 <_ZN4UTFT15printWithMarginEPKciii>
	if (jokerFifty) {
    1d7c:	aa 20       	and	r10, r10
    1d7e:	09 f4       	brne	.+2      	; 0x1d82 <_Z15displayQuestion14objectQuestionPhh+0x56>
    1d80:	66 c0       	rjmp	.+204    	; 0x1e4e <_Z15displayQuestion14objectQuestionPhh+0x122>
		( * jokerFiftyUsed) = 1;
    1d82:	81 e0       	ldi	r24, 0x01	; 1
    1d84:	f6 01       	movw	r30, r12
    1d86:	80 83       	st	Z, r24
		if (1 == questionObj.correctAns) {
    1d88:	8b 85       	ldd	r24, Y+11	; 0x0b
    1d8a:	81 30       	cpi	r24, 0x01	; 1
    1d8c:	b9 f4       	brne	.+46     	; 0x1dbc <_Z15displayQuestion14objectQuestionPhh+0x90>
			display.printWithMargin(questionObj.a, A_OPTION_COORDINATE);
    1d8e:	6b 81       	ldd	r22, Y+3	; 0x03
    1d90:	7c 81       	ldd	r23, Y+4	; 0x04
    1d92:	0a e0       	ldi	r16, 0x0A	; 10
    1d94:	10 e0       	ldi	r17, 0x00	; 0
    1d96:	24 e6       	ldi	r18, 0x64	; 100
    1d98:	30 e0       	ldi	r19, 0x00	; 0
    1d9a:	42 e3       	ldi	r20, 0x32	; 50
    1d9c:	50 e0       	ldi	r21, 0x00	; 0
    1d9e:	8e ea       	ldi	r24, 0xAE	; 174
    1da0:	93 e0       	ldi	r25, 0x03	; 3
    1da2:	0e 94 d9 19 	call	0x33b2	; 0x33b2 <_ZN4UTFT15printWithMarginEPKciii>
			display.printWithMargin(questionObj.d, D_OPTION_COORDINATE);
    1da6:	69 85       	ldd	r22, Y+9	; 0x09
    1da8:	7a 85       	ldd	r23, Y+10	; 0x0a
    1daa:	2a ea       	ldi	r18, 0xAA	; 170
    1dac:	30 e0       	ldi	r19, 0x00	; 0
    1dae:	48 ec       	ldi	r20, 0xC8	; 200
    1db0:	50 e0       	ldi	r21, 0x00	; 0
    1db2:	8e ea       	ldi	r24, 0xAE	; 174
    1db4:	93 e0       	ldi	r25, 0x03	; 3
    1db6:	0e 94 d9 19 	call	0x33b2	; 0x33b2 <_ZN4UTFT15printWithMarginEPKciii>
    1dba:	73 c0       	rjmp	.+230    	; 0x1ea2 <_Z15displayQuestion14objectQuestionPhh+0x176>
			} else if (2 == questionObj.correctAns) {
    1dbc:	82 30       	cpi	r24, 0x02	; 2
    1dbe:	b9 f4       	brne	.+46     	; 0x1dee <_Z15displayQuestion14objectQuestionPhh+0xc2>
			display.printWithMargin(questionObj.b, B_OPTION_COORDINATE);
    1dc0:	6d 81       	ldd	r22, Y+5	; 0x05
    1dc2:	7e 81       	ldd	r23, Y+6	; 0x06
    1dc4:	0a e0       	ldi	r16, 0x0A	; 10
    1dc6:	10 e0       	ldi	r17, 0x00	; 0
    1dc8:	24 e6       	ldi	r18, 0x64	; 100
    1dca:	30 e0       	ldi	r19, 0x00	; 0
    1dcc:	48 ec       	ldi	r20, 0xC8	; 200
    1dce:	50 e0       	ldi	r21, 0x00	; 0
    1dd0:	8e ea       	ldi	r24, 0xAE	; 174
    1dd2:	93 e0       	ldi	r25, 0x03	; 3
    1dd4:	0e 94 d9 19 	call	0x33b2	; 0x33b2 <_ZN4UTFT15printWithMarginEPKciii>
			display.printWithMargin(questionObj.c, C_OPTION_COORDINATE);
    1dd8:	6f 81       	ldd	r22, Y+7	; 0x07
    1dda:	78 85       	ldd	r23, Y+8	; 0x08
    1ddc:	2a ea       	ldi	r18, 0xAA	; 170
    1dde:	30 e0       	ldi	r19, 0x00	; 0
    1de0:	42 e3       	ldi	r20, 0x32	; 50
    1de2:	50 e0       	ldi	r21, 0x00	; 0
    1de4:	8e ea       	ldi	r24, 0xAE	; 174
    1de6:	93 e0       	ldi	r25, 0x03	; 3
    1de8:	0e 94 d9 19 	call	0x33b2	; 0x33b2 <_ZN4UTFT15printWithMarginEPKciii>
    1dec:	5a c0       	rjmp	.+180    	; 0x1ea2 <_Z15displayQuestion14objectQuestionPhh+0x176>
			} else if (3 == questionObj.correctAns) {
    1dee:	83 30       	cpi	r24, 0x03	; 3
    1df0:	b9 f4       	brne	.+46     	; 0x1e20 <_Z15displayQuestion14objectQuestionPhh+0xf4>
			display.printWithMargin(questionObj.c, C_OPTION_COORDINATE);
    1df2:	6f 81       	ldd	r22, Y+7	; 0x07
    1df4:	78 85       	ldd	r23, Y+8	; 0x08
    1df6:	0a e0       	ldi	r16, 0x0A	; 10
    1df8:	10 e0       	ldi	r17, 0x00	; 0
    1dfa:	2a ea       	ldi	r18, 0xAA	; 170
    1dfc:	30 e0       	ldi	r19, 0x00	; 0
    1dfe:	42 e3       	ldi	r20, 0x32	; 50
    1e00:	50 e0       	ldi	r21, 0x00	; 0
    1e02:	8e ea       	ldi	r24, 0xAE	; 174
    1e04:	93 e0       	ldi	r25, 0x03	; 3
    1e06:	0e 94 d9 19 	call	0x33b2	; 0x33b2 <_ZN4UTFT15printWithMarginEPKciii>
			display.printWithMargin(questionObj.a, A_OPTION_COORDINATE);
    1e0a:	6b 81       	ldd	r22, Y+3	; 0x03
    1e0c:	7c 81       	ldd	r23, Y+4	; 0x04
    1e0e:	24 e6       	ldi	r18, 0x64	; 100
    1e10:	30 e0       	ldi	r19, 0x00	; 0
    1e12:	42 e3       	ldi	r20, 0x32	; 50
    1e14:	50 e0       	ldi	r21, 0x00	; 0
    1e16:	8e ea       	ldi	r24, 0xAE	; 174
    1e18:	93 e0       	ldi	r25, 0x03	; 3
    1e1a:	0e 94 d9 19 	call	0x33b2	; 0x33b2 <_ZN4UTFT15printWithMarginEPKciii>
    1e1e:	41 c0       	rjmp	.+130    	; 0x1ea2 <_Z15displayQuestion14objectQuestionPhh+0x176>
			} else {
			display.printWithMargin(questionObj.b, B_OPTION_COORDINATE);
    1e20:	6d 81       	ldd	r22, Y+5	; 0x05
    1e22:	7e 81       	ldd	r23, Y+6	; 0x06
    1e24:	0a e0       	ldi	r16, 0x0A	; 10
    1e26:	10 e0       	ldi	r17, 0x00	; 0
    1e28:	24 e6       	ldi	r18, 0x64	; 100
    1e2a:	30 e0       	ldi	r19, 0x00	; 0
    1e2c:	48 ec       	ldi	r20, 0xC8	; 200
    1e2e:	50 e0       	ldi	r21, 0x00	; 0
    1e30:	8e ea       	ldi	r24, 0xAE	; 174
    1e32:	93 e0       	ldi	r25, 0x03	; 3
    1e34:	0e 94 d9 19 	call	0x33b2	; 0x33b2 <_ZN4UTFT15printWithMarginEPKciii>
			display.printWithMargin(questionObj.d, D_OPTION_COORDINATE);
    1e38:	69 85       	ldd	r22, Y+9	; 0x09
    1e3a:	7a 85       	ldd	r23, Y+10	; 0x0a
    1e3c:	2a ea       	ldi	r18, 0xAA	; 170
    1e3e:	30 e0       	ldi	r19, 0x00	; 0
    1e40:	48 ec       	ldi	r20, 0xC8	; 200
    1e42:	50 e0       	ldi	r21, 0x00	; 0
    1e44:	8e ea       	ldi	r24, 0xAE	; 174
    1e46:	93 e0       	ldi	r25, 0x03	; 3
    1e48:	0e 94 d9 19 	call	0x33b2	; 0x33b2 <_ZN4UTFT15printWithMarginEPKciii>
    1e4c:	2a c0       	rjmp	.+84     	; 0x1ea2 <_Z15displayQuestion14objectQuestionPhh+0x176>

		}
		} else {
		display.printWithMargin(questionObj.a, A_OPTION_COORDINATE);
    1e4e:	6b 81       	ldd	r22, Y+3	; 0x03
    1e50:	7c 81       	ldd	r23, Y+4	; 0x04
    1e52:	0a e0       	ldi	r16, 0x0A	; 10
    1e54:	10 e0       	ldi	r17, 0x00	; 0
    1e56:	24 e6       	ldi	r18, 0x64	; 100
    1e58:	30 e0       	ldi	r19, 0x00	; 0
    1e5a:	42 e3       	ldi	r20, 0x32	; 50
    1e5c:	50 e0       	ldi	r21, 0x00	; 0
    1e5e:	8e ea       	ldi	r24, 0xAE	; 174
    1e60:	93 e0       	ldi	r25, 0x03	; 3
    1e62:	0e 94 d9 19 	call	0x33b2	; 0x33b2 <_ZN4UTFT15printWithMarginEPKciii>
		display.printWithMargin(questionObj.b, B_OPTION_COORDINATE);
    1e66:	6d 81       	ldd	r22, Y+5	; 0x05
    1e68:	7e 81       	ldd	r23, Y+6	; 0x06
    1e6a:	24 e6       	ldi	r18, 0x64	; 100
    1e6c:	30 e0       	ldi	r19, 0x00	; 0
    1e6e:	48 ec       	ldi	r20, 0xC8	; 200
    1e70:	50 e0       	ldi	r21, 0x00	; 0
    1e72:	8e ea       	ldi	r24, 0xAE	; 174
    1e74:	93 e0       	ldi	r25, 0x03	; 3
    1e76:	0e 94 d9 19 	call	0x33b2	; 0x33b2 <_ZN4UTFT15printWithMarginEPKciii>
		display.printWithMargin(questionObj.c, C_OPTION_COORDINATE);
    1e7a:	6f 81       	ldd	r22, Y+7	; 0x07
    1e7c:	78 85       	ldd	r23, Y+8	; 0x08
    1e7e:	2a ea       	ldi	r18, 0xAA	; 170
    1e80:	30 e0       	ldi	r19, 0x00	; 0
    1e82:	42 e3       	ldi	r20, 0x32	; 50
    1e84:	50 e0       	ldi	r21, 0x00	; 0
    1e86:	8e ea       	ldi	r24, 0xAE	; 174
    1e88:	93 e0       	ldi	r25, 0x03	; 3
    1e8a:	0e 94 d9 19 	call	0x33b2	; 0x33b2 <_ZN4UTFT15printWithMarginEPKciii>
		display.printWithMargin(questionObj.d, D_OPTION_COORDINATE);
    1e8e:	69 85       	ldd	r22, Y+9	; 0x09
    1e90:	7a 85       	ldd	r23, Y+10	; 0x0a
    1e92:	2a ea       	ldi	r18, 0xAA	; 170
    1e94:	30 e0       	ldi	r19, 0x00	; 0
    1e96:	48 ec       	ldi	r20, 0xC8	; 200
    1e98:	50 e0       	ldi	r21, 0x00	; 0
    1e9a:	8e ea       	ldi	r24, 0xAE	; 174
    1e9c:	93 e0       	ldi	r25, 0x03	; 3
    1e9e:	0e 94 d9 19 	call	0x33b2	; 0x33b2 <_ZN4UTFT15printWithMarginEPKciii>
	}
}
    1ea2:	2b 96       	adiw	r28, 0x0b	; 11
    1ea4:	0f b6       	in	r0, 0x3f	; 63
    1ea6:	f8 94       	cli
    1ea8:	de bf       	out	0x3e, r29	; 62
    1eaa:	0f be       	out	0x3f, r0	; 63
    1eac:	cd bf       	out	0x3d, r28	; 61
    1eae:	df 91       	pop	r29
    1eb0:	cf 91       	pop	r28
    1eb2:	1f 91       	pop	r17
    1eb4:	0f 91       	pop	r16
    1eb6:	ff 90       	pop	r15
    1eb8:	ef 90       	pop	r14
    1eba:	df 90       	pop	r13
    1ebc:	cf 90       	pop	r12
    1ebe:	af 90       	pop	r10
    1ec0:	08 95       	ret

00001ec2 <_Z12displayScorev>:

/*
* Displays bottom score bar
*/

void displayScore() {
    1ec2:	0f 93       	push	r16
    1ec4:	1f 93       	push	r17
    1ec6:	cf 93       	push	r28

	if (step < 5) {
    1ec8:	80 91 ad 03 	lds	r24, 0x03AD	; 0x8003ad <step>
    1ecc:	85 30       	cpi	r24, 0x05	; 5
    1ece:	58 f5       	brcc	.+86     	; 0x1f26 <_Z12displayScorev+0x64>
    1ed0:	c0 e0       	ldi	r28, 0x00	; 0
		for (uint8_t i = 0; i < 5; i++) {
    1ed2:	c5 30       	cpi	r28, 0x05	; 5
    1ed4:	08 f0       	brcs	.+2      	; 0x1ed8 <_Z12displayScorev+0x16>
    1ed6:	4d c0       	rjmp	.+154    	; 0x1f72 <_Z12displayScorev+0xb0>
			display.print(score[i], 10 + (i * 50), 221);
    1ed8:	8c 2f       	mov	r24, r28
    1eda:	90 e0       	ldi	r25, 0x00	; 0
    1edc:	22 e3       	ldi	r18, 0x32	; 50
    1ede:	28 9f       	mul	r18, r24
    1ee0:	a0 01       	movw	r20, r0
    1ee2:	29 9f       	mul	r18, r25
    1ee4:	50 0d       	add	r21, r0
    1ee6:	11 24       	eor	r1, r1
    1ee8:	46 5f       	subi	r20, 0xF6	; 246
    1eea:	5f 4f       	sbci	r21, 0xFF	; 255
    1eec:	bc 01       	movw	r22, r24
    1eee:	66 0f       	add	r22, r22
    1ef0:	77 1f       	adc	r23, r23
    1ef2:	68 0f       	add	r22, r24
    1ef4:	79 1f       	adc	r23, r25
    1ef6:	66 0f       	add	r22, r22
    1ef8:	77 1f       	adc	r23, r23
    1efa:	6f 5f       	subi	r22, 0xFF	; 255
    1efc:	7c 4f       	sbci	r23, 0xFC	; 252
    1efe:	00 e0       	ldi	r16, 0x00	; 0
    1f00:	10 e0       	ldi	r17, 0x00	; 0
    1f02:	2d ed       	ldi	r18, 0xDD	; 221
    1f04:	30 e0       	ldi	r19, 0x00	; 0
    1f06:	8e ea       	ldi	r24, 0xAE	; 174
    1f08:	93 e0       	ldi	r25, 0x03	; 3
    1f0a:	0e 94 fe 18 	call	0x31fc	; 0x31fc <_ZN4UTFT5printEPKciii>
			display.print("->", RIGHT_ARROW);
    1f0e:	2e ed       	ldi	r18, 0xDE	; 222
    1f10:	30 e0       	ldi	r19, 0x00	; 0
    1f12:	48 e1       	ldi	r20, 0x18	; 24
    1f14:	51 e0       	ldi	r21, 0x01	; 1
    1f16:	6e ef       	ldi	r22, 0xFE	; 254
    1f18:	72 e0       	ldi	r23, 0x02	; 2
    1f1a:	8e ea       	ldi	r24, 0xAE	; 174
    1f1c:	93 e0       	ldi	r25, 0x03	; 3
    1f1e:	0e 94 fe 18 	call	0x31fc	; 0x31fc <_ZN4UTFT5printEPKciii>
*/

void displayScore() {

	if (step < 5) {
		for (uint8_t i = 0; i < 5; i++) {
    1f22:	cf 5f       	subi	r28, 0xFF	; 255
    1f24:	d6 cf       	rjmp	.-84     	; 0x1ed2 <_Z12displayScorev+0x10>
			display.print(score[i], 10 + (i * 50), 221);
			display.print("->", RIGHT_ARROW);
		}
		} else if (step >= 5 && step < 10) {
    1f26:	85 50       	subi	r24, 0x05	; 5
    1f28:	85 30       	cpi	r24, 0x05	; 5
    1f2a:	18 f5       	brcc	.+70     	; 0x1f72 <_Z12displayScorev+0xb0>
    1f2c:	c5 e0       	ldi	r28, 0x05	; 5
		for (uint8_t i = 5; i < 10; i++) {
    1f2e:	ca 30       	cpi	r28, 0x0A	; 10
    1f30:	00 f5       	brcc	.+64     	; 0x1f72 <_Z12displayScorev+0xb0>
			display.print(score[i], 10 + (i - 5) * 50, 221);
    1f32:	8c 2f       	mov	r24, r28
    1f34:	90 e0       	ldi	r25, 0x00	; 0
    1f36:	9c 01       	movw	r18, r24
    1f38:	25 50       	subi	r18, 0x05	; 5
    1f3a:	31 09       	sbc	r19, r1
    1f3c:	62 e3       	ldi	r22, 0x32	; 50
    1f3e:	62 9f       	mul	r22, r18
    1f40:	a0 01       	movw	r20, r0
    1f42:	63 9f       	mul	r22, r19
    1f44:	50 0d       	add	r21, r0
    1f46:	11 24       	eor	r1, r1
    1f48:	46 5f       	subi	r20, 0xF6	; 246
    1f4a:	5f 4f       	sbci	r21, 0xFF	; 255
    1f4c:	bc 01       	movw	r22, r24
    1f4e:	66 0f       	add	r22, r22
    1f50:	77 1f       	adc	r23, r23
    1f52:	68 0f       	add	r22, r24
    1f54:	79 1f       	adc	r23, r25
    1f56:	66 0f       	add	r22, r22
    1f58:	77 1f       	adc	r23, r23
    1f5a:	6f 5f       	subi	r22, 0xFF	; 255
    1f5c:	7c 4f       	sbci	r23, 0xFC	; 252
    1f5e:	00 e0       	ldi	r16, 0x00	; 0
    1f60:	10 e0       	ldi	r17, 0x00	; 0
    1f62:	2d ed       	ldi	r18, 0xDD	; 221
    1f64:	30 e0       	ldi	r19, 0x00	; 0
    1f66:	8e ea       	ldi	r24, 0xAE	; 174
    1f68:	93 e0       	ldi	r25, 0x03	; 3
    1f6a:	0e 94 fe 18 	call	0x31fc	; 0x31fc <_ZN4UTFT5printEPKciii>
		for (uint8_t i = 0; i < 5; i++) {
			display.print(score[i], 10 + (i * 50), 221);
			display.print("->", RIGHT_ARROW);
		}
		} else if (step >= 5 && step < 10) {
		for (uint8_t i = 5; i < 10; i++) {
    1f6e:	cf 5f       	subi	r28, 0xFF	; 255
    1f70:	de cf       	rjmp	.-68     	; 0x1f2e <_Z12displayScorev+0x6c>
			display.print(score[i], 10 + (i - 5) * 50, 221);
		}
	}
}
    1f72:	cf 91       	pop	r28
    1f74:	1f 91       	pop	r17
    1f76:	0f 91       	pop	r16
    1f78:	08 95       	ret

00001f7a <_Z11checkAnswerPh14objectQuestionS_>:
/*
* Used for checking if the selected answer was correct,
* Resets time and displays the right title screen
*/

void checkAnswer(uint8_t * ans, objectQuestion questionsObj, uint8_t * jokerFiftyUsed) {
    1f7a:	8f 92       	push	r8
    1f7c:	9f 92       	push	r9
    1f7e:	af 92       	push	r10
    1f80:	bf 92       	push	r11
    1f82:	cf 92       	push	r12
    1f84:	df 92       	push	r13
    1f86:	ef 92       	push	r14
    1f88:	ff 92       	push	r15
    1f8a:	0f 93       	push	r16
    1f8c:	1f 93       	push	r17
    1f8e:	cf 93       	push	r28
    1f90:	df 93       	push	r29
    1f92:	cd b7       	in	r28, 0x3d	; 61
    1f94:	de b7       	in	r29, 0x3e	; 62
    1f96:	2b 97       	sbiw	r28, 0x0b	; 11
    1f98:	0f b6       	in	r0, 0x3f	; 63
    1f9a:	f8 94       	cli
    1f9c:	de bf       	out	0x3e, r29	; 62
    1f9e:	0f be       	out	0x3f, r0	; 63
    1fa0:	cd bf       	out	0x3d, r28	; 61
    1fa2:	4c 01       	movw	r8, r24

	if (( * ans) == questionsObj.correctAns) {
    1fa4:	fc 01       	movw	r30, r24
    1fa6:	80 81       	ld	r24, Z
    1fa8:	86 13       	cpse	r24, r22
    1faa:	31 c0       	rjmp	.+98     	; 0x200e <_Z11checkAnswerPh14objectQuestionS_+0x94>
		step++;
    1fac:	80 91 ad 03 	lds	r24, 0x03AD	; 0x8003ad <step>
    1fb0:	8f 5f       	subi	r24, 0xFF	; 255
    1fb2:	80 93 ad 03 	sts	0x03AD, r24	; 0x8003ad <step>
		displayCorrect();
    1fb6:	0e 94 d2 0c 	call	0x19a4	; 0x19a4 <_Z14displayCorrectv>
		display.fillScr(BLUE);
    1fba:	2c ec       	ldi	r18, 0xCC	; 204
    1fbc:	40 e0       	ldi	r20, 0x00	; 0
    1fbe:	60 e0       	ldi	r22, 0x00	; 0
    1fc0:	8e ea       	ldi	r24, 0xAE	; 174
    1fc2:	93 e0       	ldi	r25, 0x03	; 3
    1fc4:	0e 94 ae 13 	call	0x275c	; 0x275c <_ZN4UTFT7fillScrEhhh>
		displayGUI();
    1fc8:	80 e0       	ldi	r24, 0x00	; 0
    1fca:	0e 94 ac 0d 	call	0x1b58	; 0x1b58 <_Z10displayGUIh>
		displayQuestion(questionsEasy[step]);
    1fce:	e0 91 ad 03 	lds	r30, 0x03AD	; 0x8003ad <step>
    1fd2:	8b e0       	ldi	r24, 0x0B	; 11
    1fd4:	e8 9f       	mul	r30, r24
    1fd6:	f0 01       	movw	r30, r0
    1fd8:	11 24       	eor	r1, r1
    1fda:	e2 5c       	subi	r30, 0xC2	; 194
    1fdc:	fc 4f       	sbci	r31, 0xFC	; 252
    1fde:	a1 2c       	mov	r10, r1
    1fe0:	c1 2c       	mov	r12, r1
    1fe2:	d1 2c       	mov	r13, r1
    1fe4:	e0 80       	ld	r14, Z
    1fe6:	f1 80       	ldd	r15, Z+1	; 0x01
    1fe8:	02 81       	ldd	r16, Z+2	; 0x02
    1fea:	13 81       	ldd	r17, Z+3	; 0x03
    1fec:	24 81       	ldd	r18, Z+4	; 0x04
    1fee:	35 81       	ldd	r19, Z+5	; 0x05
    1ff0:	46 81       	ldd	r20, Z+6	; 0x06
    1ff2:	57 81       	ldd	r21, Z+7	; 0x07
    1ff4:	60 85       	ldd	r22, Z+8	; 0x08
    1ff6:	71 85       	ldd	r23, Z+9	; 0x09
    1ff8:	82 85       	ldd	r24, Z+10	; 0x0a
    1ffa:	0e 94 96 0e 	call	0x1d2c	; 0x1d2c <_Z15displayQuestion14objectQuestionPhh>
		drawScoreHighlight();
    1ffe:	0e 94 5b 0d 	call	0x1ab6	; 0x1ab6 <_Z18drawScoreHighlightv>
		* ans = 0;
    2002:	f4 01       	movw	r30, r8
    2004:	10 82       	st	Z, r1
		tS = EXPIRATION_TIME;
    2006:	84 e1       	ldi	r24, 0x14	; 20
    2008:	80 93 60 00 	sts	0x0060, r24	; 0x800060 <__DATA_REGION_ORIGIN__>
    200c:	2f c0       	rjmp	.+94     	; 0x206c <_Z11checkAnswerPh14objectQuestionS_+0xf2>
		} else {
		* jokerFiftyUsed = 0;
    200e:	f5 01       	movw	r30, r10
    2010:	10 82       	st	Z, r1
		step = 0;
    2012:	10 92 ad 03 	sts	0x03AD, r1	; 0x8003ad <step>
		displayCorrect();
    2016:	0e 94 d2 0c 	call	0x19a4	; 0x19a4 <_Z14displayCorrectv>
		display.fillScr(BLUE);
    201a:	2c ec       	ldi	r18, 0xCC	; 204
    201c:	40 e0       	ldi	r20, 0x00	; 0
    201e:	60 e0       	ldi	r22, 0x00	; 0
    2020:	8e ea       	ldi	r24, 0xAE	; 174
    2022:	93 e0       	ldi	r25, 0x03	; 3
    2024:	0e 94 ae 13 	call	0x275c	; 0x275c <_ZN4UTFT7fillScrEhhh>
		displayGUI();
    2028:	80 e0       	ldi	r24, 0x00	; 0
    202a:	0e 94 ac 0d 	call	0x1b58	; 0x1b58 <_Z10displayGUIh>
		displayQuestion(questionsEasy[step]);
    202e:	e0 91 ad 03 	lds	r30, 0x03AD	; 0x8003ad <step>
    2032:	8b e0       	ldi	r24, 0x0B	; 11
    2034:	e8 9f       	mul	r30, r24
    2036:	f0 01       	movw	r30, r0
    2038:	11 24       	eor	r1, r1
    203a:	e2 5c       	subi	r30, 0xC2	; 194
    203c:	fc 4f       	sbci	r31, 0xFC	; 252
    203e:	a1 2c       	mov	r10, r1
    2040:	c1 2c       	mov	r12, r1
    2042:	d1 2c       	mov	r13, r1
    2044:	e0 80       	ld	r14, Z
    2046:	f1 80       	ldd	r15, Z+1	; 0x01
    2048:	02 81       	ldd	r16, Z+2	; 0x02
    204a:	13 81       	ldd	r17, Z+3	; 0x03
    204c:	24 81       	ldd	r18, Z+4	; 0x04
    204e:	35 81       	ldd	r19, Z+5	; 0x05
    2050:	46 81       	ldd	r20, Z+6	; 0x06
    2052:	57 81       	ldd	r21, Z+7	; 0x07
    2054:	60 85       	ldd	r22, Z+8	; 0x08
    2056:	71 85       	ldd	r23, Z+9	; 0x09
    2058:	82 85       	ldd	r24, Z+10	; 0x0a
    205a:	0e 94 96 0e 	call	0x1d2c	; 0x1d2c <_Z15displayQuestion14objectQuestionPhh>
		drawScoreHighlight();
    205e:	0e 94 5b 0d 	call	0x1ab6	; 0x1ab6 <_Z18drawScoreHighlightv>
		* ans = 0;
    2062:	f4 01       	movw	r30, r8
    2064:	10 82       	st	Z, r1
		tS = EXPIRATION_TIME;
    2066:	84 e1       	ldi	r24, 0x14	; 20
    2068:	80 93 60 00 	sts	0x0060, r24	; 0x800060 <__DATA_REGION_ORIGIN__>
	};
}
    206c:	2b 96       	adiw	r28, 0x0b	; 11
    206e:	0f b6       	in	r0, 0x3f	; 63
    2070:	f8 94       	cli
    2072:	de bf       	out	0x3e, r29	; 62
    2074:	0f be       	out	0x3f, r0	; 63
    2076:	cd bf       	out	0x3d, r28	; 61
    2078:	df 91       	pop	r29
    207a:	cf 91       	pop	r28
    207c:	1f 91       	pop	r17
    207e:	0f 91       	pop	r16
    2080:	ff 90       	pop	r15
    2082:	ef 90       	pop	r14
    2084:	df 90       	pop	r13
    2086:	cf 90       	pop	r12
    2088:	bf 90       	pop	r11
    208a:	af 90       	pop	r10
    208c:	9f 90       	pop	r9
    208e:	8f 90       	pop	r8
    2090:	08 95       	ret

00002092 <__vector_19>:

/*
* Timer0 used to limit answer time
*/

ISR(TIMER0_COMP_vect) {
    2092:	1f 92       	push	r1
    2094:	0f 92       	push	r0
    2096:	0f b6       	in	r0, 0x3f	; 63
    2098:	0f 92       	push	r0
    209a:	11 24       	eor	r1, r1
    209c:	8f 93       	push	r24
	tSS++;
    209e:	80 91 ac 03 	lds	r24, 0x03AC	; 0x8003ac <tSS>
    20a2:	8f 5f       	subi	r24, 0xFF	; 255
    20a4:	80 93 ac 03 	sts	0x03AC, r24	; 0x8003ac <tSS>

	if (tSS >= EXPIRATION_TIME) {
    20a8:	84 31       	cpi	r24, 0x14	; 20
    20aa:	38 f0       	brcs	.+14     	; 0x20ba <__vector_19+0x28>
		tSS = 0;
    20ac:	10 92 ac 03 	sts	0x03AC, r1	; 0x8003ac <tSS>
		tS--;
    20b0:	80 91 60 00 	lds	r24, 0x0060	; 0x800060 <__DATA_REGION_ORIGIN__>
    20b4:	81 50       	subi	r24, 0x01	; 1
    20b6:	80 93 60 00 	sts	0x0060, r24	; 0x800060 <__DATA_REGION_ORIGIN__>

		if (tS < 0 ) tS = EXPIRATION_TIME;
	}

}
    20ba:	8f 91       	pop	r24
    20bc:	0f 90       	pop	r0
    20be:	0f be       	out	0x3f, r0	; 63
    20c0:	0f 90       	pop	r0
    20c2:	1f 90       	pop	r1
    20c4:	18 95       	reti

000020c6 <main>:

int main() {
    20c6:	cf 93       	push	r28
    20c8:	df 93       	push	r29
    20ca:	00 d0       	rcall	.+0      	; 0x20cc <main+0x6>
    20cc:	cd b7       	in	r28, 0x3d	; 61
    20ce:	de b7       	in	r29, 0x3e	; 62
	//SET PORTS
	PORTB = 0xff;
    20d0:	bb 24       	eor	r11, r11
    20d2:	ba 94       	dec	r11
    20d4:	b8 ba       	out	0x18, r11	; 24
	DDRB = 0x00;
    20d6:	17 ba       	out	0x17, r1	; 23

	//VARIABLES
	uint8_t ans = 0;
    20d8:	19 82       	std	Y+1, r1	; 0x01
	uint8_t jokerFiftyUsed = 0;
    20da:	1a 82       	std	Y+2, r1	; 0x02

	//LCD INIT
	display.clrScr();
    20dc:	8e ea       	ldi	r24, 0xAE	; 174
    20de:	93 e0       	ldi	r25, 0x03	; 3
    20e0:	0e 94 3c 13 	call	0x2678	; 0x2678 <_ZN4UTFT6clrScrEv>
	display.InitLCD(LANDSCAPE);
    20e4:	61 e0       	ldi	r22, 0x01	; 1
    20e6:	8e ea       	ldi	r24, 0xAE	; 174
    20e8:	93 e0       	ldi	r25, 0x03	; 3
    20ea:	0e 94 0b 14 	call	0x2816	; 0x2816 <_ZN4UTFT7InitLCDEh>

	//GUI INIT
	display.setFont(SmallFont);
    20ee:	66 e5       	ldi	r22, 0x56	; 86
    20f0:	7c e0       	ldi	r23, 0x0C	; 12
    20f2:	8e ea       	ldi	r24, 0xAE	; 174
    20f4:	93 e0       	ldi	r25, 0x03	; 3
    20f6:	0e 94 76 1b 	call	0x36ec	; 0x36ec <_ZN4UTFT7setFontEPKh>
	display.fillScr(BLUE);
    20fa:	2c ec       	ldi	r18, 0xCC	; 204
    20fc:	40 e0       	ldi	r20, 0x00	; 0
    20fe:	60 e0       	ldi	r22, 0x00	; 0
    2100:	8e ea       	ldi	r24, 0xAE	; 174
    2102:	93 e0       	ldi	r25, 0x03	; 3
    2104:	0e 94 ae 13 	call	0x275c	; 0x275c <_ZN4UTFT7fillScrEhhh>
	display.setBackColor(BLUE);
    2108:	2c ec       	ldi	r18, 0xCC	; 204
    210a:	40 e0       	ldi	r20, 0x00	; 0
    210c:	60 e0       	ldi	r22, 0x00	; 0
    210e:	8e ea       	ldi	r24, 0xAE	; 174
    2110:	93 e0       	ldi	r25, 0x03	; 3
    2112:	0e 94 e6 13 	call	0x27cc	; 0x27cc <_ZN4UTFT12setBackColorEhhh>
	displayQuestion(questionsEasy[step]);
    2116:	e0 91 ad 03 	lds	r30, 0x03AD	; 0x8003ad <step>
    211a:	2b e0       	ldi	r18, 0x0B	; 11
    211c:	e2 9f       	mul	r30, r18
    211e:	f0 01       	movw	r30, r0
    2120:	11 24       	eor	r1, r1
    2122:	e2 5c       	subi	r30, 0xC2	; 194
    2124:	fc 4f       	sbci	r31, 0xFC	; 252
    2126:	a1 2c       	mov	r10, r1
    2128:	c1 2c       	mov	r12, r1
    212a:	d1 2c       	mov	r13, r1
    212c:	e0 80       	ld	r14, Z
    212e:	f1 80       	ldd	r15, Z+1	; 0x01
    2130:	02 81       	ldd	r16, Z+2	; 0x02
    2132:	13 81       	ldd	r17, Z+3	; 0x03
    2134:	24 81       	ldd	r18, Z+4	; 0x04
    2136:	35 81       	ldd	r19, Z+5	; 0x05
    2138:	46 81       	ldd	r20, Z+6	; 0x06
    213a:	57 81       	ldd	r21, Z+7	; 0x07
    213c:	60 85       	ldd	r22, Z+8	; 0x08
    213e:	71 85       	ldd	r23, Z+9	; 0x09
    2140:	82 85       	ldd	r24, Z+10	; 0x0a
    2142:	0e 94 96 0e 	call	0x1d2c	; 0x1d2c <_Z15displayQuestion14objectQuestionPhh>
	drawScoreHighlight();
    2146:	0e 94 5b 0d 	call	0x1ab6	; 0x1ab6 <_Z18drawScoreHighlightv>

	//TIMER0 INIT
	TCCR0 = _BV(WGM01) | _BV(CS02) | _BV(CS00);
    214a:	8d e0       	ldi	r24, 0x0D	; 13
    214c:	83 bf       	out	0x33, r24	; 51
	OCR0 = 255;
    214e:	bc be       	out	0x3c, r11	; 60
	TIMSK = _BV(OCIE0);
    2150:	82 e0       	ldi	r24, 0x02	; 2
    2152:	89 bf       	out	0x39, r24	; 57
	sei();
    2154:	78 94       	sei
	
	//MAIN WHILE
	while (1) {
		displayGUI();
    2156:	80 e0       	ldi	r24, 0x00	; 0
    2158:	0e 94 ac 0d 	call	0x1b58	; 0x1b58 <_Z10displayGUIh>
		displayScore();
    215c:	0e 94 61 0f 	call	0x1ec2	; 0x1ec2 <_Z12displayScorev>
		
		//WAIT FOR ANSWER OR TIMER EXPIRES
		while (!bit_is_clear(PINB, 0) && !bit_is_clear(PINB, 1) && !bit_is_clear(PINB, 2) && !bit_is_clear(PINB, 3) && !bit_is_clear(PINB, 4)) {
    2160:	b0 9b       	sbis	0x16, 0	; 22
    2162:	0a c0       	rjmp	.+20     	; 0x2178 <main+0xb2>
    2164:	b1 9b       	sbis	0x16, 1	; 22
    2166:	0a c0       	rjmp	.+20     	; 0x217c <main+0xb6>
    2168:	b2 9b       	sbis	0x16, 2	; 22
    216a:	0a c0       	rjmp	.+20     	; 0x2180 <main+0xba>
    216c:	b3 9b       	sbis	0x16, 3	; 22
    216e:	0a c0       	rjmp	.+20     	; 0x2184 <main+0xbe>
    2170:	b4 99       	sbic	0x16, 4	; 22
    2172:	0a c0       	rjmp	.+20     	; 0x2188 <main+0xc2>
    2174:	80 e0       	ldi	r24, 0x00	; 0
    2176:	09 c0       	rjmp	.+18     	; 0x218a <main+0xc4>
    2178:	80 e0       	ldi	r24, 0x00	; 0
    217a:	07 c0       	rjmp	.+14     	; 0x218a <main+0xc4>
    217c:	80 e0       	ldi	r24, 0x00	; 0
    217e:	05 c0       	rjmp	.+10     	; 0x218a <main+0xc4>
    2180:	80 e0       	ldi	r24, 0x00	; 0
    2182:	03 c0       	rjmp	.+6      	; 0x218a <main+0xc4>
    2184:	80 e0       	ldi	r24, 0x00	; 0
    2186:	01 c0       	rjmp	.+2      	; 0x218a <main+0xc4>
    2188:	81 e0       	ldi	r24, 0x01	; 1
    218a:	88 23       	and	r24, r24
    218c:	99 f1       	breq	.+102    	; 0x21f4 <main+0x12e>
			display.printNumI(tS, 140, 45, 3);
    218e:	68 94       	set
    2190:	ee 24       	eor	r14, r14
    2192:	e5 f8       	bld	r14, 5
    2194:	03 e0       	ldi	r16, 0x03	; 3
    2196:	10 e0       	ldi	r17, 0x00	; 0
    2198:	2d e2       	ldi	r18, 0x2D	; 45
    219a:	30 e0       	ldi	r19, 0x00	; 0
    219c:	4c e8       	ldi	r20, 0x8C	; 140
    219e:	50 e0       	ldi	r21, 0x00	; 0
    21a0:	60 91 60 00 	lds	r22, 0x0060	; 0x800060 <__DATA_REGION_ORIGIN__>
    21a4:	8e ea       	ldi	r24, 0xAE	; 174
    21a6:	93 e0       	ldi	r25, 0x03	; 3
    21a8:	0e 94 b3 1a 	call	0x3566	; 0x3566 <_ZN4UTFT9printNumIEhiiic>
			if (tS <= 0) {
    21ac:	80 91 60 00 	lds	r24, 0x0060	; 0x800060 <__DATA_REGION_ORIGIN__>
    21b0:	81 11       	cpse	r24, r1
    21b2:	1c c0       	rjmp	.+56     	; 0x21ec <main+0x126>
				ans = 5;
    21b4:	85 e0       	ldi	r24, 0x05	; 5
    21b6:	89 83       	std	Y+1, r24	; 0x01
				checkAnswer( & ans, questionsEasy[step], & jokerFiftyUsed);
    21b8:	e0 91 ad 03 	lds	r30, 0x03AD	; 0x8003ad <step>
    21bc:	8b e0       	ldi	r24, 0x0B	; 11
    21be:	e8 9f       	mul	r30, r24
    21c0:	f0 01       	movw	r30, r0
    21c2:	11 24       	eor	r1, r1
    21c4:	e2 5c       	subi	r30, 0xC2	; 194
    21c6:	fc 4f       	sbci	r31, 0xFC	; 252
    21c8:	ce 01       	movw	r24, r28
    21ca:	02 96       	adiw	r24, 0x02	; 2
    21cc:	5c 01       	movw	r10, r24
    21ce:	c0 80       	ld	r12, Z
    21d0:	d1 80       	ldd	r13, Z+1	; 0x01
    21d2:	e2 80       	ldd	r14, Z+2	; 0x02
    21d4:	f3 80       	ldd	r15, Z+3	; 0x03
    21d6:	04 81       	ldd	r16, Z+4	; 0x04
    21d8:	15 81       	ldd	r17, Z+5	; 0x05
    21da:	26 81       	ldd	r18, Z+6	; 0x06
    21dc:	37 81       	ldd	r19, Z+7	; 0x07
    21de:	40 85       	ldd	r20, Z+8	; 0x08
    21e0:	51 85       	ldd	r21, Z+9	; 0x09
    21e2:	62 85       	ldd	r22, Z+10	; 0x0a
    21e4:	01 97       	sbiw	r24, 0x01	; 1
    21e6:	0e 94 bd 0f 	call	0x1f7a	; 0x1f7a <_Z11checkAnswerPh14objectQuestionS_>
				break;
    21ea:	04 c0       	rjmp	.+8      	; 0x21f4 <main+0x12e>
			}
			displayGUI();
    21ec:	80 e0       	ldi	r24, 0x00	; 0
    21ee:	0e 94 ac 0d 	call	0x1b58	; 0x1b58 <_Z10displayGUIh>
	while (1) {
		displayGUI();
		displayScore();
		
		//WAIT FOR ANSWER OR TIMER EXPIRES
		while (!bit_is_clear(PINB, 0) && !bit_is_clear(PINB, 1) && !bit_is_clear(PINB, 2) && !bit_is_clear(PINB, 3) && !bit_is_clear(PINB, 4)) {
    21f2:	b6 cf       	rjmp	.-148    	; 0x2160 <main+0x9a>
				break;
			}
			displayGUI();
		}
		//CHECK ANSWER
		if (bit_is_clear(PINB, 0)) {
    21f4:	b0 99       	sbic	0x16, 0	; 22
    21f6:	25 c0       	rjmp	.+74     	; 0x2242 <main+0x17c>
			ans = 1;
    21f8:	81 e0       	ldi	r24, 0x01	; 1
    21fa:	89 83       	std	Y+1, r24	; 0x01
    21fc:	9f ef       	ldi	r25, 0xFF	; 255
    21fe:	2f eb       	ldi	r18, 0xBF	; 191
    2200:	86 e0       	ldi	r24, 0x06	; 6
    2202:	91 50       	subi	r25, 0x01	; 1
    2204:	20 40       	sbci	r18, 0x00	; 0
    2206:	80 40       	sbci	r24, 0x00	; 0
    2208:	e1 f7       	brne	.-8      	; 0x2202 <main+0x13c>
    220a:	00 c0       	rjmp	.+0      	; 0x220c <main+0x146>
    220c:	00 00       	nop
			_delay_ms(DEBOUNCE);
			checkAnswer( & ans, questionsEasy[step], & jokerFiftyUsed);
    220e:	e0 91 ad 03 	lds	r30, 0x03AD	; 0x8003ad <step>
    2212:	9b e0       	ldi	r25, 0x0B	; 11
    2214:	e9 9f       	mul	r30, r25
    2216:	f0 01       	movw	r30, r0
    2218:	11 24       	eor	r1, r1
    221a:	e2 5c       	subi	r30, 0xC2	; 194
    221c:	fc 4f       	sbci	r31, 0xFC	; 252
    221e:	ce 01       	movw	r24, r28
    2220:	02 96       	adiw	r24, 0x02	; 2
    2222:	5c 01       	movw	r10, r24
    2224:	c0 80       	ld	r12, Z
    2226:	d1 80       	ldd	r13, Z+1	; 0x01
    2228:	e2 80       	ldd	r14, Z+2	; 0x02
    222a:	f3 80       	ldd	r15, Z+3	; 0x03
    222c:	04 81       	ldd	r16, Z+4	; 0x04
    222e:	15 81       	ldd	r17, Z+5	; 0x05
    2230:	26 81       	ldd	r18, Z+6	; 0x06
    2232:	37 81       	ldd	r19, Z+7	; 0x07
    2234:	40 85       	ldd	r20, Z+8	; 0x08
    2236:	51 85       	ldd	r21, Z+9	; 0x09
    2238:	62 85       	ldd	r22, Z+10	; 0x0a
    223a:	01 97       	sbiw	r24, 0x01	; 1
    223c:	0e 94 bd 0f 	call	0x1f7a	; 0x1f7a <_Z11checkAnswerPh14objectQuestionS_>
    2240:	8a cf       	rjmp	.-236    	; 0x2156 <main+0x90>
			} else if (bit_is_clear(PINB, 1)) {
    2242:	b1 99       	sbic	0x16, 1	; 22
    2244:	25 c0       	rjmp	.+74     	; 0x2290 <main+0x1ca>
			ans = 2;
    2246:	82 e0       	ldi	r24, 0x02	; 2
    2248:	89 83       	std	Y+1, r24	; 0x01
    224a:	9f ef       	ldi	r25, 0xFF	; 255
    224c:	2f eb       	ldi	r18, 0xBF	; 191
    224e:	86 e0       	ldi	r24, 0x06	; 6
    2250:	91 50       	subi	r25, 0x01	; 1
    2252:	20 40       	sbci	r18, 0x00	; 0
    2254:	80 40       	sbci	r24, 0x00	; 0
    2256:	e1 f7       	brne	.-8      	; 0x2250 <main+0x18a>
    2258:	00 c0       	rjmp	.+0      	; 0x225a <main+0x194>
    225a:	00 00       	nop
			_delay_ms(DEBOUNCE);
			checkAnswer( & ans, questionsEasy[step], & jokerFiftyUsed);
    225c:	e0 91 ad 03 	lds	r30, 0x03AD	; 0x8003ad <step>
    2260:	9b e0       	ldi	r25, 0x0B	; 11
    2262:	e9 9f       	mul	r30, r25
    2264:	f0 01       	movw	r30, r0
    2266:	11 24       	eor	r1, r1
    2268:	e2 5c       	subi	r30, 0xC2	; 194
    226a:	fc 4f       	sbci	r31, 0xFC	; 252
    226c:	ce 01       	movw	r24, r28
    226e:	02 96       	adiw	r24, 0x02	; 2
    2270:	5c 01       	movw	r10, r24
    2272:	c0 80       	ld	r12, Z
    2274:	d1 80       	ldd	r13, Z+1	; 0x01
    2276:	e2 80       	ldd	r14, Z+2	; 0x02
    2278:	f3 80       	ldd	r15, Z+3	; 0x03
    227a:	04 81       	ldd	r16, Z+4	; 0x04
    227c:	15 81       	ldd	r17, Z+5	; 0x05
    227e:	26 81       	ldd	r18, Z+6	; 0x06
    2280:	37 81       	ldd	r19, Z+7	; 0x07
    2282:	40 85       	ldd	r20, Z+8	; 0x08
    2284:	51 85       	ldd	r21, Z+9	; 0x09
    2286:	62 85       	ldd	r22, Z+10	; 0x0a
    2288:	01 97       	sbiw	r24, 0x01	; 1
    228a:	0e 94 bd 0f 	call	0x1f7a	; 0x1f7a <_Z11checkAnswerPh14objectQuestionS_>
    228e:	63 cf       	rjmp	.-314    	; 0x2156 <main+0x90>
			} else if (bit_is_clear(PINB, 2)) {
    2290:	b2 99       	sbic	0x16, 2	; 22
    2292:	25 c0       	rjmp	.+74     	; 0x22de <main+0x218>
			ans = 3;
    2294:	83 e0       	ldi	r24, 0x03	; 3
    2296:	89 83       	std	Y+1, r24	; 0x01
    2298:	9f ef       	ldi	r25, 0xFF	; 255
    229a:	2f eb       	ldi	r18, 0xBF	; 191
    229c:	86 e0       	ldi	r24, 0x06	; 6
    229e:	91 50       	subi	r25, 0x01	; 1
    22a0:	20 40       	sbci	r18, 0x00	; 0
    22a2:	80 40       	sbci	r24, 0x00	; 0
    22a4:	e1 f7       	brne	.-8      	; 0x229e <main+0x1d8>
    22a6:	00 c0       	rjmp	.+0      	; 0x22a8 <main+0x1e2>
    22a8:	00 00       	nop
			_delay_ms(DEBOUNCE);
			checkAnswer( & ans, questionsEasy[step], & jokerFiftyUsed);
    22aa:	e0 91 ad 03 	lds	r30, 0x03AD	; 0x8003ad <step>
    22ae:	9b e0       	ldi	r25, 0x0B	; 11
    22b0:	e9 9f       	mul	r30, r25
    22b2:	f0 01       	movw	r30, r0
    22b4:	11 24       	eor	r1, r1
    22b6:	e2 5c       	subi	r30, 0xC2	; 194
    22b8:	fc 4f       	sbci	r31, 0xFC	; 252
    22ba:	ce 01       	movw	r24, r28
    22bc:	02 96       	adiw	r24, 0x02	; 2
    22be:	5c 01       	movw	r10, r24
    22c0:	c0 80       	ld	r12, Z
    22c2:	d1 80       	ldd	r13, Z+1	; 0x01
    22c4:	e2 80       	ldd	r14, Z+2	; 0x02
    22c6:	f3 80       	ldd	r15, Z+3	; 0x03
    22c8:	04 81       	ldd	r16, Z+4	; 0x04
    22ca:	15 81       	ldd	r17, Z+5	; 0x05
    22cc:	26 81       	ldd	r18, Z+6	; 0x06
    22ce:	37 81       	ldd	r19, Z+7	; 0x07
    22d0:	40 85       	ldd	r20, Z+8	; 0x08
    22d2:	51 85       	ldd	r21, Z+9	; 0x09
    22d4:	62 85       	ldd	r22, Z+10	; 0x0a
    22d6:	01 97       	sbiw	r24, 0x01	; 1
    22d8:	0e 94 bd 0f 	call	0x1f7a	; 0x1f7a <_Z11checkAnswerPh14objectQuestionS_>
    22dc:	3c cf       	rjmp	.-392    	; 0x2156 <main+0x90>
			} else if (bit_is_clear(PINB, 3)) {
    22de:	b3 99       	sbic	0x16, 3	; 22
    22e0:	25 c0       	rjmp	.+74     	; 0x232c <main+0x266>
			ans = 4;
    22e2:	84 e0       	ldi	r24, 0x04	; 4
    22e4:	89 83       	std	Y+1, r24	; 0x01
    22e6:	9f ef       	ldi	r25, 0xFF	; 255
    22e8:	2f eb       	ldi	r18, 0xBF	; 191
    22ea:	86 e0       	ldi	r24, 0x06	; 6
    22ec:	91 50       	subi	r25, 0x01	; 1
    22ee:	20 40       	sbci	r18, 0x00	; 0
    22f0:	80 40       	sbci	r24, 0x00	; 0
    22f2:	e1 f7       	brne	.-8      	; 0x22ec <main+0x226>
    22f4:	00 c0       	rjmp	.+0      	; 0x22f6 <main+0x230>
    22f6:	00 00       	nop
			_delay_ms(DEBOUNCE);
			checkAnswer( & ans, questionsEasy[step], & jokerFiftyUsed);
    22f8:	e0 91 ad 03 	lds	r30, 0x03AD	; 0x8003ad <step>
    22fc:	9b e0       	ldi	r25, 0x0B	; 11
    22fe:	e9 9f       	mul	r30, r25
    2300:	f0 01       	movw	r30, r0
    2302:	11 24       	eor	r1, r1
    2304:	e2 5c       	subi	r30, 0xC2	; 194
    2306:	fc 4f       	sbci	r31, 0xFC	; 252
    2308:	ce 01       	movw	r24, r28
    230a:	02 96       	adiw	r24, 0x02	; 2
    230c:	5c 01       	movw	r10, r24
    230e:	c0 80       	ld	r12, Z
    2310:	d1 80       	ldd	r13, Z+1	; 0x01
    2312:	e2 80       	ldd	r14, Z+2	; 0x02
    2314:	f3 80       	ldd	r15, Z+3	; 0x03
    2316:	04 81       	ldd	r16, Z+4	; 0x04
    2318:	15 81       	ldd	r17, Z+5	; 0x05
    231a:	26 81       	ldd	r18, Z+6	; 0x06
    231c:	37 81       	ldd	r19, Z+7	; 0x07
    231e:	40 85       	ldd	r20, Z+8	; 0x08
    2320:	51 85       	ldd	r21, Z+9	; 0x09
    2322:	62 85       	ldd	r22, Z+10	; 0x0a
    2324:	01 97       	sbiw	r24, 0x01	; 1
    2326:	0e 94 bd 0f 	call	0x1f7a	; 0x1f7a <_Z11checkAnswerPh14objectQuestionS_>
    232a:	15 cf       	rjmp	.-470    	; 0x2156 <main+0x90>
			} else if (bit_is_clear(PINB, 4) && !jokerFiftyUsed) {
    232c:	b4 99       	sbic	0x16, 4	; 22
    232e:	05 c0       	rjmp	.+10     	; 0x233a <main+0x274>
    2330:	8a 81       	ldd	r24, Y+2	; 0x02
    2332:	88 23       	and	r24, r24
    2334:	21 f0       	breq	.+8      	; 0x233e <main+0x278>
    2336:	80 e0       	ldi	r24, 0x00	; 0
    2338:	03 c0       	rjmp	.+6      	; 0x2340 <main+0x27a>
    233a:	80 e0       	ldi	r24, 0x00	; 0
    233c:	01 c0       	rjmp	.+2      	; 0x2340 <main+0x27a>
    233e:	81 e0       	ldi	r24, 0x01	; 1
    2340:	88 23       	and	r24, r24
    2342:	09 f4       	brne	.+2      	; 0x2346 <main+0x280>
    2344:	08 cf       	rjmp	.-496    	; 0x2156 <main+0x90>

			display.clrScr();
    2346:	8e ea       	ldi	r24, 0xAE	; 174
    2348:	93 e0       	ldi	r25, 0x03	; 3
    234a:	0e 94 3c 13 	call	0x2678	; 0x2678 <_ZN4UTFT6clrScrEv>
			display.fillScr(BLUE);
    234e:	2c ec       	ldi	r18, 0xCC	; 204
    2350:	40 e0       	ldi	r20, 0x00	; 0
    2352:	60 e0       	ldi	r22, 0x00	; 0
    2354:	8e ea       	ldi	r24, 0xAE	; 174
    2356:	93 e0       	ldi	r25, 0x03	; 3
    2358:	0e 94 ae 13 	call	0x275c	; 0x275c <_ZN4UTFT7fillScrEhhh>
			drawScoreHighlight();
    235c:	0e 94 5b 0d 	call	0x1ab6	; 0x1ab6 <_Z18drawScoreHighlightv>
			displayGUI(1);
    2360:	81 e0       	ldi	r24, 0x01	; 1
    2362:	0e 94 ac 0d 	call	0x1b58	; 0x1b58 <_Z10displayGUIh>
			displayQuestion(questionsEasy[step], & jokerFiftyUsed, 1);
    2366:	e0 91 ad 03 	lds	r30, 0x03AD	; 0x8003ad <step>
    236a:	9b e0       	ldi	r25, 0x0B	; 11
    236c:	e9 9f       	mul	r30, r25
    236e:	f0 01       	movw	r30, r0
    2370:	11 24       	eor	r1, r1
    2372:	e2 5c       	subi	r30, 0xC2	; 194
    2374:	fc 4f       	sbci	r31, 0xFC	; 252
    2376:	aa 24       	eor	r10, r10
    2378:	a3 94       	inc	r10
    237a:	ce 01       	movw	r24, r28
    237c:	02 96       	adiw	r24, 0x02	; 2
    237e:	6c 01       	movw	r12, r24
    2380:	e0 80       	ld	r14, Z
    2382:	f1 80       	ldd	r15, Z+1	; 0x01
    2384:	02 81       	ldd	r16, Z+2	; 0x02
    2386:	13 81       	ldd	r17, Z+3	; 0x03
    2388:	24 81       	ldd	r18, Z+4	; 0x04
    238a:	35 81       	ldd	r19, Z+5	; 0x05
    238c:	46 81       	ldd	r20, Z+6	; 0x06
    238e:	57 81       	ldd	r21, Z+7	; 0x07
    2390:	60 85       	ldd	r22, Z+8	; 0x08
    2392:	71 85       	ldd	r23, Z+9	; 0x09
    2394:	82 85       	ldd	r24, Z+10	; 0x0a
    2396:	0e 94 96 0e 	call	0x1d2c	; 0x1d2c <_Z15displayQuestion14objectQuestionPhh>
    239a:	dd ce       	rjmp	.-582    	; 0x2156 <main+0x90>

0000239c <_GLOBAL__sub_I_display>:
		}
	}
    239c:	6f ef       	ldi	r22, 0xFF	; 255
    239e:	7f ef       	ldi	r23, 0xFF	; 255
    23a0:	81 e0       	ldi	r24, 0x01	; 1
    23a2:	90 e0       	ldi	r25, 0x00	; 0
    23a4:	0e 94 bf 0b 	call	0x177e	; 0x177e <_Z41__static_initialization_and_destruction_0ii>
    23a8:	08 95       	ret

000023aa <SSD1289_init>:



void SSD1289_init()
{	
	DATA_PORT_LOW_DDR = 0xff;
    23aa:	8f ef       	ldi	r24, 0xFF	; 255
    23ac:	8a bb       	out	0x1a, r24	; 26
	DATA_PORT_HIGH_DDR = 0xff;
    23ae:	81 bb       	out	0x11, r24	; 17
			
	RS_PORT_DDR |= _BV( RS_PIN);
    23b0:	84 b3       	in	r24, 0x14	; 20
    23b2:	80 64       	ori	r24, 0x40	; 64
    23b4:	84 bb       	out	0x14, r24	; 20
				
	WR_PORT_DDR |= _BV(WR_PIN);
    23b6:	84 b3       	in	r24, 0x14	; 20
    23b8:	80 68       	ori	r24, 0x80	; 128
    23ba:	84 bb       	out	0x14, r24	; 20

	CS_PORT_DDR |= _BV(CS_PIN);
    23bc:	84 b3       	in	r24, 0x14	; 20
    23be:	82 60       	ori	r24, 0x02	; 2
    23c0:	84 bb       	out	0x14, r24	; 20
		
	RD_PORT_DDR |= _BV(RD_PIN);
    23c2:	87 b3       	in	r24, 0x17	; 23
    23c4:	80 62       	ori	r24, 0x20	; 32
    23c6:	87 bb       	out	0x17, r24	; 23
	RD_PORT |= _BV(RD_PIN);
    23c8:	88 b3       	in	r24, 0x18	; 24
    23ca:	80 62       	ori	r24, 0x20	; 32
    23cc:	88 bb       	out	0x18, r24	; 24
		
	RESET_PORT_DDR |= _BV(RESET_PIN);
    23ce:	84 b3       	in	r24, 0x14	; 20
    23d0:	81 60       	ori	r24, 0x01	; 1
    23d2:	84 bb       	out	0x14, r24	; 20
		
	BACK_LIGHT_PORT |= _BV(BACK_LIGHT_PIN);
    23d4:	85 b3       	in	r24, 0x15	; 21
    23d6:	82 60       	ori	r24, 0x02	; 2
    23d8:	85 bb       	out	0x15, r24	; 21
	
	BACK_LIGHT_DDR |= _BV(BACK_LIGHT_PIN);			
    23da:	84 b3       	in	r24, 0x14	; 20
    23dc:	82 60       	ori	r24, 0x02	; 2
    23de:	84 bb       	out	0x14, r24	; 20
	
	sbi(RESET_PORT, RESET_PIN);
    23e0:	85 b3       	in	r24, 0x15	; 21
    23e2:	81 60       	ori	r24, 0x01	; 1
    23e4:	85 bb       	out	0x15, r24	; 21
    23e6:	8f ef       	ldi	r24, 0xFF	; 255
    23e8:	93 e2       	ldi	r25, 0x23	; 35
    23ea:	01 97       	sbiw	r24, 0x01	; 1
    23ec:	f1 f7       	brne	.-4      	; 0x23ea <SSD1289_init+0x40>
    23ee:	00 c0       	rjmp	.+0      	; 0x23f0 <SSD1289_init+0x46>
    23f0:	00 00       	nop
	_delay_ms(5);
	cbi(RESET_PORT, RESET_PIN);
    23f2:	85 b3       	in	r24, 0x15	; 21
    23f4:	8e 7f       	andi	r24, 0xFE	; 254
    23f6:	85 bb       	out	0x15, r24	; 21
    23f8:	8f ef       	ldi	r24, 0xFF	; 255
    23fa:	9b e6       	ldi	r25, 0x6B	; 107
    23fc:	01 97       	sbiw	r24, 0x01	; 1
    23fe:	f1 f7       	brne	.-4      	; 0x23fc <SSD1289_init+0x52>
    2400:	00 c0       	rjmp	.+0      	; 0x2402 <SSD1289_init+0x58>
    2402:	00 00       	nop
	_delay_ms(15);
	sbi(RESET_PORT, RESET_PIN);
    2404:	85 b3       	in	r24, 0x15	; 21
    2406:	81 60       	ori	r24, 0x01	; 1
    2408:	85 bb       	out	0x15, r24	; 21
    240a:	8f ef       	ldi	r24, 0xFF	; 255
    240c:	9b e6       	ldi	r25, 0x6B	; 107
    240e:	01 97       	sbiw	r24, 0x01	; 1
    2410:	f1 f7       	brne	.-4      	; 0x240e <SSD1289_init+0x64>
    2412:	00 c0       	rjmp	.+0      	; 0x2414 <SSD1289_init+0x6a>
    2414:	00 00       	nop
	_delay_ms(15);

	cbi(CS_PORT, CS_PIN);
    2416:	85 b3       	in	r24, 0x15	; 21
    2418:	8d 7f       	andi	r24, 0xFD	; 253
    241a:	85 bb       	out	0x15, r24	; 21

	LCD_Write_COM_DATA(0x00,0x0001);
    241c:	61 e0       	ldi	r22, 0x01	; 1
    241e:	70 e0       	ldi	r23, 0x00	; 0
    2420:	80 e0       	ldi	r24, 0x00	; 0
    2422:	0e 94 7e 09 	call	0x12fc	; 0x12fc <LCD_Write_COM_DATA>
	LCD_Write_COM_DATA(0x03,0xA8A4);
    2426:	64 ea       	ldi	r22, 0xA4	; 164
    2428:	78 ea       	ldi	r23, 0xA8	; 168
    242a:	83 e0       	ldi	r24, 0x03	; 3
    242c:	0e 94 7e 09 	call	0x12fc	; 0x12fc <LCD_Write_COM_DATA>
	LCD_Write_COM_DATA(0x0C,0x0000);
    2430:	60 e0       	ldi	r22, 0x00	; 0
    2432:	70 e0       	ldi	r23, 0x00	; 0
    2434:	8c e0       	ldi	r24, 0x0C	; 12
    2436:	0e 94 7e 09 	call	0x12fc	; 0x12fc <LCD_Write_COM_DATA>
	LCD_Write_COM_DATA(0x0D,0x080C);
    243a:	6c e0       	ldi	r22, 0x0C	; 12
    243c:	78 e0       	ldi	r23, 0x08	; 8
    243e:	8d e0       	ldi	r24, 0x0D	; 13
    2440:	0e 94 7e 09 	call	0x12fc	; 0x12fc <LCD_Write_COM_DATA>
	LCD_Write_COM_DATA(0x0E,0x2B00);
    2444:	60 e0       	ldi	r22, 0x00	; 0
    2446:	7b e2       	ldi	r23, 0x2B	; 43
    2448:	8e e0       	ldi	r24, 0x0E	; 14
    244a:	0e 94 7e 09 	call	0x12fc	; 0x12fc <LCD_Write_COM_DATA>
	LCD_Write_COM_DATA(0x1E,0x00B7);
    244e:	67 eb       	ldi	r22, 0xB7	; 183
    2450:	70 e0       	ldi	r23, 0x00	; 0
    2452:	8e e1       	ldi	r24, 0x1E	; 30
    2454:	0e 94 7e 09 	call	0x12fc	; 0x12fc <LCD_Write_COM_DATA>
	LCD_Write_COM_DATA(0x01,0x2B3F);
    2458:	6f e3       	ldi	r22, 0x3F	; 63
    245a:	7b e2       	ldi	r23, 0x2B	; 43
    245c:	81 e0       	ldi	r24, 0x01	; 1
    245e:	0e 94 7e 09 	call	0x12fc	; 0x12fc <LCD_Write_COM_DATA>
	LCD_Write_COM_DATA(0x02,0x0600);
    2462:	60 e0       	ldi	r22, 0x00	; 0
    2464:	76 e0       	ldi	r23, 0x06	; 6
    2466:	82 e0       	ldi	r24, 0x02	; 2
    2468:	0e 94 7e 09 	call	0x12fc	; 0x12fc <LCD_Write_COM_DATA>
	LCD_Write_COM_DATA(0x10,0x0000);
    246c:	60 e0       	ldi	r22, 0x00	; 0
    246e:	70 e0       	ldi	r23, 0x00	; 0
    2470:	80 e1       	ldi	r24, 0x10	; 16
    2472:	0e 94 7e 09 	call	0x12fc	; 0x12fc <LCD_Write_COM_DATA>
	LCD_Write_COM_DATA(0x11,0x6070);
    2476:	60 e7       	ldi	r22, 0x70	; 112
    2478:	70 e6       	ldi	r23, 0x60	; 96
    247a:	81 e1       	ldi	r24, 0x11	; 17
    247c:	0e 94 7e 09 	call	0x12fc	; 0x12fc <LCD_Write_COM_DATA>
	LCD_Write_COM_DATA(0x05,0x0000);
    2480:	60 e0       	ldi	r22, 0x00	; 0
    2482:	70 e0       	ldi	r23, 0x00	; 0
    2484:	85 e0       	ldi	r24, 0x05	; 5
    2486:	0e 94 7e 09 	call	0x12fc	; 0x12fc <LCD_Write_COM_DATA>
	LCD_Write_COM_DATA(0x06,0x0000);
    248a:	60 e0       	ldi	r22, 0x00	; 0
    248c:	70 e0       	ldi	r23, 0x00	; 0
    248e:	86 e0       	ldi	r24, 0x06	; 6
    2490:	0e 94 7e 09 	call	0x12fc	; 0x12fc <LCD_Write_COM_DATA>
	LCD_Write_COM_DATA(0x16,0xEF1C);
    2494:	6c e1       	ldi	r22, 0x1C	; 28
    2496:	7f ee       	ldi	r23, 0xEF	; 239
    2498:	86 e1       	ldi	r24, 0x16	; 22
    249a:	0e 94 7e 09 	call	0x12fc	; 0x12fc <LCD_Write_COM_DATA>
	LCD_Write_COM_DATA(0x17,0x0003);
    249e:	63 e0       	ldi	r22, 0x03	; 3
    24a0:	70 e0       	ldi	r23, 0x00	; 0
    24a2:	87 e1       	ldi	r24, 0x17	; 23
    24a4:	0e 94 7e 09 	call	0x12fc	; 0x12fc <LCD_Write_COM_DATA>
	LCD_Write_COM_DATA(0x07,0x0233);
    24a8:	63 e3       	ldi	r22, 0x33	; 51
    24aa:	72 e0       	ldi	r23, 0x02	; 2
    24ac:	87 e0       	ldi	r24, 0x07	; 7
    24ae:	0e 94 7e 09 	call	0x12fc	; 0x12fc <LCD_Write_COM_DATA>
	LCD_Write_COM_DATA(0x0B,0x0000);
    24b2:	60 e0       	ldi	r22, 0x00	; 0
    24b4:	70 e0       	ldi	r23, 0x00	; 0
    24b6:	8b e0       	ldi	r24, 0x0B	; 11
    24b8:	0e 94 7e 09 	call	0x12fc	; 0x12fc <LCD_Write_COM_DATA>
	LCD_Write_COM_DATA(0x0F,0x0000);
    24bc:	60 e0       	ldi	r22, 0x00	; 0
    24be:	70 e0       	ldi	r23, 0x00	; 0
    24c0:	8f e0       	ldi	r24, 0x0F	; 15
    24c2:	0e 94 7e 09 	call	0x12fc	; 0x12fc <LCD_Write_COM_DATA>
	LCD_Write_COM_DATA(0x41,0x0000);
    24c6:	60 e0       	ldi	r22, 0x00	; 0
    24c8:	70 e0       	ldi	r23, 0x00	; 0
    24ca:	81 e4       	ldi	r24, 0x41	; 65
    24cc:	0e 94 7e 09 	call	0x12fc	; 0x12fc <LCD_Write_COM_DATA>
	LCD_Write_COM_DATA(0x42,0x0000);
    24d0:	60 e0       	ldi	r22, 0x00	; 0
    24d2:	70 e0       	ldi	r23, 0x00	; 0
    24d4:	82 e4       	ldi	r24, 0x42	; 66
    24d6:	0e 94 7e 09 	call	0x12fc	; 0x12fc <LCD_Write_COM_DATA>
	LCD_Write_COM_DATA(0x48,0x0000);
    24da:	60 e0       	ldi	r22, 0x00	; 0
    24dc:	70 e0       	ldi	r23, 0x00	; 0
    24de:	88 e4       	ldi	r24, 0x48	; 72
    24e0:	0e 94 7e 09 	call	0x12fc	; 0x12fc <LCD_Write_COM_DATA>
	LCD_Write_COM_DATA(0x49,0x013F);
    24e4:	6f e3       	ldi	r22, 0x3F	; 63
    24e6:	71 e0       	ldi	r23, 0x01	; 1
    24e8:	89 e4       	ldi	r24, 0x49	; 73
    24ea:	0e 94 7e 09 	call	0x12fc	; 0x12fc <LCD_Write_COM_DATA>
	LCD_Write_COM_DATA(0x4A,0x0000);
    24ee:	60 e0       	ldi	r22, 0x00	; 0
    24f0:	70 e0       	ldi	r23, 0x00	; 0
    24f2:	8a e4       	ldi	r24, 0x4A	; 74
    24f4:	0e 94 7e 09 	call	0x12fc	; 0x12fc <LCD_Write_COM_DATA>
	LCD_Write_COM_DATA(0x4B,0x0000);
    24f8:	60 e0       	ldi	r22, 0x00	; 0
    24fa:	70 e0       	ldi	r23, 0x00	; 0
    24fc:	8b e4       	ldi	r24, 0x4B	; 75
    24fe:	0e 94 7e 09 	call	0x12fc	; 0x12fc <LCD_Write_COM_DATA>
	LCD_Write_COM_DATA(0x44,0xEF00);
    2502:	60 e0       	ldi	r22, 0x00	; 0
    2504:	7f ee       	ldi	r23, 0xEF	; 239
    2506:	84 e4       	ldi	r24, 0x44	; 68
    2508:	0e 94 7e 09 	call	0x12fc	; 0x12fc <LCD_Write_COM_DATA>
	LCD_Write_COM_DATA(0x45,0x0000);
    250c:	60 e0       	ldi	r22, 0x00	; 0
    250e:	70 e0       	ldi	r23, 0x00	; 0
    2510:	85 e4       	ldi	r24, 0x45	; 69
    2512:	0e 94 7e 09 	call	0x12fc	; 0x12fc <LCD_Write_COM_DATA>
	LCD_Write_COM_DATA(0x46,0x013F);
    2516:	6f e3       	ldi	r22, 0x3F	; 63
    2518:	71 e0       	ldi	r23, 0x01	; 1
    251a:	86 e4       	ldi	r24, 0x46	; 70
    251c:	0e 94 7e 09 	call	0x12fc	; 0x12fc <LCD_Write_COM_DATA>
	LCD_Write_COM_DATA(0x30,0x0707);
    2520:	67 e0       	ldi	r22, 0x07	; 7
    2522:	77 e0       	ldi	r23, 0x07	; 7
    2524:	80 e3       	ldi	r24, 0x30	; 48
    2526:	0e 94 7e 09 	call	0x12fc	; 0x12fc <LCD_Write_COM_DATA>
	LCD_Write_COM_DATA(0x31,0x0204);
    252a:	64 e0       	ldi	r22, 0x04	; 4
    252c:	72 e0       	ldi	r23, 0x02	; 2
    252e:	81 e3       	ldi	r24, 0x31	; 49
    2530:	0e 94 7e 09 	call	0x12fc	; 0x12fc <LCD_Write_COM_DATA>
	LCD_Write_COM_DATA(0x32,0x0204);
    2534:	64 e0       	ldi	r22, 0x04	; 4
    2536:	72 e0       	ldi	r23, 0x02	; 2
    2538:	82 e3       	ldi	r24, 0x32	; 50
    253a:	0e 94 7e 09 	call	0x12fc	; 0x12fc <LCD_Write_COM_DATA>
	LCD_Write_COM_DATA(0x33,0x0502);
    253e:	62 e0       	ldi	r22, 0x02	; 2
    2540:	75 e0       	ldi	r23, 0x05	; 5
    2542:	83 e3       	ldi	r24, 0x33	; 51
    2544:	0e 94 7e 09 	call	0x12fc	; 0x12fc <LCD_Write_COM_DATA>
	LCD_Write_COM_DATA(0x34,0x0507);
    2548:	67 e0       	ldi	r22, 0x07	; 7
    254a:	75 e0       	ldi	r23, 0x05	; 5
    254c:	84 e3       	ldi	r24, 0x34	; 52
    254e:	0e 94 7e 09 	call	0x12fc	; 0x12fc <LCD_Write_COM_DATA>
	LCD_Write_COM_DATA(0x35,0x0204);
    2552:	64 e0       	ldi	r22, 0x04	; 4
    2554:	72 e0       	ldi	r23, 0x02	; 2
    2556:	85 e3       	ldi	r24, 0x35	; 53
    2558:	0e 94 7e 09 	call	0x12fc	; 0x12fc <LCD_Write_COM_DATA>
	LCD_Write_COM_DATA(0x36,0x0204);
    255c:	64 e0       	ldi	r22, 0x04	; 4
    255e:	72 e0       	ldi	r23, 0x02	; 2
    2560:	86 e3       	ldi	r24, 0x36	; 54
    2562:	0e 94 7e 09 	call	0x12fc	; 0x12fc <LCD_Write_COM_DATA>
	LCD_Write_COM_DATA(0x37,0x0502);
    2566:	62 e0       	ldi	r22, 0x02	; 2
    2568:	75 e0       	ldi	r23, 0x05	; 5
    256a:	87 e3       	ldi	r24, 0x37	; 55
    256c:	0e 94 7e 09 	call	0x12fc	; 0x12fc <LCD_Write_COM_DATA>
	LCD_Write_COM_DATA(0x3A,0x0302);
    2570:	62 e0       	ldi	r22, 0x02	; 2
    2572:	73 e0       	ldi	r23, 0x03	; 3
    2574:	8a e3       	ldi	r24, 0x3A	; 58
    2576:	0e 94 7e 09 	call	0x12fc	; 0x12fc <LCD_Write_COM_DATA>
	LCD_Write_COM_DATA(0x3B,0x0302);
    257a:	62 e0       	ldi	r22, 0x02	; 2
    257c:	73 e0       	ldi	r23, 0x03	; 3
    257e:	8b e3       	ldi	r24, 0x3B	; 59
    2580:	0e 94 7e 09 	call	0x12fc	; 0x12fc <LCD_Write_COM_DATA>
	LCD_Write_COM_DATA(0x23,0x0000);
    2584:	60 e0       	ldi	r22, 0x00	; 0
    2586:	70 e0       	ldi	r23, 0x00	; 0
    2588:	83 e2       	ldi	r24, 0x23	; 35
    258a:	0e 94 7e 09 	call	0x12fc	; 0x12fc <LCD_Write_COM_DATA>
	LCD_Write_COM_DATA(0x24,0x0000);
    258e:	60 e0       	ldi	r22, 0x00	; 0
    2590:	70 e0       	ldi	r23, 0x00	; 0
    2592:	84 e2       	ldi	r24, 0x24	; 36
    2594:	0e 94 7e 09 	call	0x12fc	; 0x12fc <LCD_Write_COM_DATA>
	LCD_Write_COM_DATA(0x25,0x8000);
    2598:	60 e0       	ldi	r22, 0x00	; 0
    259a:	70 e8       	ldi	r23, 0x80	; 128
    259c:	85 e2       	ldi	r24, 0x25	; 37
    259e:	0e 94 7e 09 	call	0x12fc	; 0x12fc <LCD_Write_COM_DATA>
	LCD_Write_COM_DATA(0x4f,0x0000);
    25a2:	60 e0       	ldi	r22, 0x00	; 0
    25a4:	70 e0       	ldi	r23, 0x00	; 0
    25a6:	8f e4       	ldi	r24, 0x4F	; 79
    25a8:	0e 94 7e 09 	call	0x12fc	; 0x12fc <LCD_Write_COM_DATA>
	LCD_Write_COM_DATA(0x4e,0x0000);
    25ac:	60 e0       	ldi	r22, 0x00	; 0
    25ae:	70 e0       	ldi	r23, 0x00	; 0
    25b0:	8e e4       	ldi	r24, 0x4E	; 78
    25b2:	0e 94 7e 09 	call	0x12fc	; 0x12fc <LCD_Write_COM_DATA>
	LCD_Write_COM(0x22);
    25b6:	82 e2       	ldi	r24, 0x22	; 34
    25b8:	0e 94 6a 09 	call	0x12d4	; 0x12d4 <LCD_Write_COM>


	sbi(CS_PORT, CS_PIN);
    25bc:	85 b3       	in	r24, 0x15	; 21
    25be:	82 60       	ori	r24, 0x02	; 2
    25c0:	85 bb       	out	0x15, r24	; 21
    25c2:	08 95       	ret

000025c4 <_ZN4UTFTC1Ev>:
		}
		st[c2+f]=0;
	}

	print(st,x,y);
}
    25c4:	4f ee       	ldi	r20, 0xEF	; 239
    25c6:	50 e0       	ldi	r21, 0x00	; 0
    25c8:	60 e0       	ldi	r22, 0x00	; 0
    25ca:	70 e0       	ldi	r23, 0x00	; 0
    25cc:	fc 01       	movw	r30, r24
    25ce:	45 83       	std	Z+5, r20	; 0x05
    25d0:	56 83       	std	Z+6, r21	; 0x06
    25d2:	67 83       	std	Z+7, r22	; 0x07
    25d4:	70 87       	std	Z+8, r23	; 0x08
    25d6:	4f e3       	ldi	r20, 0x3F	; 63
    25d8:	51 e0       	ldi	r21, 0x01	; 1
    25da:	60 e0       	ldi	r22, 0x00	; 0
    25dc:	70 e0       	ldi	r23, 0x00	; 0
    25de:	41 87       	std	Z+9, r20	; 0x09
    25e0:	52 87       	std	Z+10, r21	; 0x0a
    25e2:	63 87       	std	Z+11, r22	; 0x0b
    25e4:	74 87       	std	Z+12, r23	; 0x0c
    25e6:	0e 94 d5 11 	call	0x23aa	; 0x23aa <SSD1289_init>
    25ea:	08 95       	ret

000025ec <_ZN4UTFT5setXYEjjjj>:
    25ec:	ef 92       	push	r14
    25ee:	ff 92       	push	r15
    25f0:	0f 93       	push	r16
    25f2:	1f 93       	push	r17
    25f4:	cf 93       	push	r28
    25f6:	df 93       	push	r29
    25f8:	eb 01       	movw	r28, r22
    25fa:	e4 2e       	mov	r14, r20
    25fc:	f5 2e       	mov	r15, r21
    25fe:	fc 01       	movw	r30, r24
    2600:	44 81       	ldd	r20, Z+4	; 0x04
    2602:	41 30       	cpi	r20, 0x01	; 1
    2604:	89 f4       	brne	.+34     	; 0x2628 <_ZN4UTFT5setXYEjjjj+0x3c>
    2606:	81 85       	ldd	r24, Z+9	; 0x09
    2608:	92 85       	ldd	r25, Z+10	; 0x0a
    260a:	a3 85       	ldd	r26, Z+11	; 0x0b
    260c:	b4 85       	ldd	r27, Z+12	; 0x0c
    260e:	ac 01       	movw	r20, r24
    2610:	46 1b       	sub	r20, r22
    2612:	57 0b       	sbc	r21, r23
    2614:	82 1b       	sub	r24, r18
    2616:	93 0b       	sbc	r25, r19
    2618:	20 2f       	mov	r18, r16
    261a:	31 2f       	mov	r19, r17
    261c:	04 2f       	mov	r16, r20
    261e:	15 2f       	mov	r17, r21
    2620:	ce 2d       	mov	r28, r14
    2622:	df 2d       	mov	r29, r15
    2624:	e8 2e       	mov	r14, r24
    2626:	f9 2e       	mov	r15, r25
    2628:	32 2f       	mov	r19, r18
    262a:	22 27       	eor	r18, r18
    262c:	be 01       	movw	r22, r28
    262e:	62 0f       	add	r22, r18
    2630:	73 1f       	adc	r23, r19
    2632:	84 e4       	ldi	r24, 0x44	; 68
    2634:	0e 94 7e 09 	call	0x12fc	; 0x12fc <LCD_Write_COM_DATA>
    2638:	6e 2d       	mov	r22, r14
    263a:	7f 2d       	mov	r23, r15
    263c:	85 e4       	ldi	r24, 0x45	; 69
    263e:	0e 94 7e 09 	call	0x12fc	; 0x12fc <LCD_Write_COM_DATA>
    2642:	60 2f       	mov	r22, r16
    2644:	71 2f       	mov	r23, r17
    2646:	86 e4       	ldi	r24, 0x46	; 70
    2648:	0e 94 7e 09 	call	0x12fc	; 0x12fc <LCD_Write_COM_DATA>
    264c:	be 01       	movw	r22, r28
    264e:	8e e4       	ldi	r24, 0x4E	; 78
    2650:	0e 94 7e 09 	call	0x12fc	; 0x12fc <LCD_Write_COM_DATA>
    2654:	6e 2d       	mov	r22, r14
    2656:	7f 2d       	mov	r23, r15
    2658:	8f e4       	ldi	r24, 0x4F	; 79
    265a:	0e 94 7e 09 	call	0x12fc	; 0x12fc <LCD_Write_COM_DATA>
    265e:	82 e2       	ldi	r24, 0x22	; 34
    2660:	0e 94 6a 09 	call	0x12d4	; 0x12d4 <LCD_Write_COM>
    2664:	85 b3       	in	r24, 0x15	; 21
    2666:	80 64       	ori	r24, 0x40	; 64
    2668:	85 bb       	out	0x15, r24	; 21
    266a:	df 91       	pop	r29
    266c:	cf 91       	pop	r28
    266e:	1f 91       	pop	r17
    2670:	0f 91       	pop	r16
    2672:	ff 90       	pop	r15
    2674:	ef 90       	pop	r14
    2676:	08 95       	ret

00002678 <_ZN4UTFT6clrScrEv>:
    2678:	85 b3       	in	r24, 0x15	; 21
    267a:	8d 7f       	andi	r24, 0xFD	; 253
    267c:	85 bb       	out	0x15, r24	; 21
    267e:	60 e0       	ldi	r22, 0x00	; 0
    2680:	7f ee       	ldi	r23, 0xEF	; 239
    2682:	84 e4       	ldi	r24, 0x44	; 68
    2684:	0e 94 7e 09 	call	0x12fc	; 0x12fc <LCD_Write_COM_DATA>
    2688:	60 e0       	ldi	r22, 0x00	; 0
    268a:	70 e0       	ldi	r23, 0x00	; 0
    268c:	85 e4       	ldi	r24, 0x45	; 69
    268e:	0e 94 7e 09 	call	0x12fc	; 0x12fc <LCD_Write_COM_DATA>
    2692:	6f e3       	ldi	r22, 0x3F	; 63
    2694:	71 e0       	ldi	r23, 0x01	; 1
    2696:	86 e4       	ldi	r24, 0x46	; 70
    2698:	0e 94 7e 09 	call	0x12fc	; 0x12fc <LCD_Write_COM_DATA>
    269c:	60 e0       	ldi	r22, 0x00	; 0
    269e:	70 e0       	ldi	r23, 0x00	; 0
    26a0:	8e e4       	ldi	r24, 0x4E	; 78
    26a2:	0e 94 7e 09 	call	0x12fc	; 0x12fc <LCD_Write_COM_DATA>
    26a6:	60 e0       	ldi	r22, 0x00	; 0
    26a8:	70 e0       	ldi	r23, 0x00	; 0
    26aa:	8f e4       	ldi	r24, 0x4F	; 79
    26ac:	0e 94 7e 09 	call	0x12fc	; 0x12fc <LCD_Write_COM_DATA>
    26b0:	68 e7       	ldi	r22, 0x78	; 120
    26b2:	70 e6       	ldi	r23, 0x60	; 96
    26b4:	81 e1       	ldi	r24, 0x11	; 17
    26b6:	0e 94 7e 09 	call	0x12fc	; 0x12fc <LCD_Write_COM_DATA>
    26ba:	82 e2       	ldi	r24, 0x22	; 34
    26bc:	0e 94 6a 09 	call	0x12d4	; 0x12d4 <LCD_Write_COM>
    26c0:	85 b3       	in	r24, 0x15	; 21
    26c2:	80 64       	ori	r24, 0x40	; 64
    26c4:	85 bb       	out	0x15, r24	; 21
    26c6:	1b ba       	out	0x1b, r1	; 27
    26c8:	12 ba       	out	0x12, r1	; 18
    26ca:	60 e0       	ldi	r22, 0x00	; 0
    26cc:	7c e2       	ldi	r23, 0x2C	; 44
    26ce:	81 e0       	ldi	r24, 0x01	; 1
    26d0:	90 e0       	ldi	r25, 0x00	; 0
    26d2:	0e 94 21 09 	call	0x1242	; 0x1242 <fastfill>
    26d6:	8f ef       	ldi	r24, 0xFF	; 255
    26d8:	8b bb       	out	0x1b, r24	; 27
    26da:	82 bb       	out	0x12, r24	; 18
    26dc:	85 b3       	in	r24, 0x15	; 21
    26de:	8d 7f       	andi	r24, 0xFD	; 253
    26e0:	85 bb       	out	0x15, r24	; 21
    26e2:	08 95       	ret

000026e4 <_ZN4UTFT7fillScrEj>:
    26e4:	cf 93       	push	r28
    26e6:	df 93       	push	r29
    26e8:	d6 2f       	mov	r29, r22
    26ea:	c7 2f       	mov	r28, r23
    26ec:	85 b3       	in	r24, 0x15	; 21
    26ee:	8d 7f       	andi	r24, 0xFD	; 253
    26f0:	85 bb       	out	0x15, r24	; 21
    26f2:	60 e0       	ldi	r22, 0x00	; 0
    26f4:	7f ee       	ldi	r23, 0xEF	; 239
    26f6:	84 e4       	ldi	r24, 0x44	; 68
    26f8:	0e 94 7e 09 	call	0x12fc	; 0x12fc <LCD_Write_COM_DATA>
    26fc:	60 e0       	ldi	r22, 0x00	; 0
    26fe:	70 e0       	ldi	r23, 0x00	; 0
    2700:	85 e4       	ldi	r24, 0x45	; 69
    2702:	0e 94 7e 09 	call	0x12fc	; 0x12fc <LCD_Write_COM_DATA>
    2706:	6f e3       	ldi	r22, 0x3F	; 63
    2708:	71 e0       	ldi	r23, 0x01	; 1
    270a:	86 e4       	ldi	r24, 0x46	; 70
    270c:	0e 94 7e 09 	call	0x12fc	; 0x12fc <LCD_Write_COM_DATA>
    2710:	60 e0       	ldi	r22, 0x00	; 0
    2712:	70 e0       	ldi	r23, 0x00	; 0
    2714:	8e e4       	ldi	r24, 0x4E	; 78
    2716:	0e 94 7e 09 	call	0x12fc	; 0x12fc <LCD_Write_COM_DATA>
    271a:	60 e0       	ldi	r22, 0x00	; 0
    271c:	70 e0       	ldi	r23, 0x00	; 0
    271e:	8f e4       	ldi	r24, 0x4F	; 79
    2720:	0e 94 7e 09 	call	0x12fc	; 0x12fc <LCD_Write_COM_DATA>
    2724:	68 e7       	ldi	r22, 0x78	; 120
    2726:	70 e6       	ldi	r23, 0x60	; 96
    2728:	81 e1       	ldi	r24, 0x11	; 17
    272a:	0e 94 7e 09 	call	0x12fc	; 0x12fc <LCD_Write_COM_DATA>
    272e:	82 e2       	ldi	r24, 0x22	; 34
    2730:	0e 94 6a 09 	call	0x12d4	; 0x12d4 <LCD_Write_COM>
    2734:	85 b3       	in	r24, 0x15	; 21
    2736:	80 64       	ori	r24, 0x40	; 64
    2738:	85 bb       	out	0x15, r24	; 21
    273a:	db bb       	out	0x1b, r29	; 27
    273c:	c2 bb       	out	0x12, r28	; 18
    273e:	60 e0       	ldi	r22, 0x00	; 0
    2740:	7c e2       	ldi	r23, 0x2C	; 44
    2742:	81 e0       	ldi	r24, 0x01	; 1
    2744:	90 e0       	ldi	r25, 0x00	; 0
    2746:	0e 94 21 09 	call	0x1242	; 0x1242 <fastfill>
    274a:	8f ef       	ldi	r24, 0xFF	; 255
    274c:	8b bb       	out	0x1b, r24	; 27
    274e:	82 bb       	out	0x12, r24	; 18
    2750:	85 b3       	in	r24, 0x15	; 21
    2752:	82 60       	ori	r24, 0x02	; 2
    2754:	85 bb       	out	0x15, r24	; 21
    2756:	df 91       	pop	r29
    2758:	cf 91       	pop	r28
    275a:	08 95       	ret

0000275c <_ZN4UTFT7fillScrEhhh>:
    275c:	68 7f       	andi	r22, 0xF8	; 248
    275e:	70 e0       	ldi	r23, 0x00	; 0
    2760:	76 2f       	mov	r23, r22
    2762:	66 27       	eor	r22, r22
    2764:	4c 7f       	andi	r20, 0xFC	; 252
    2766:	50 e0       	ldi	r21, 0x00	; 0
    2768:	44 0f       	add	r20, r20
    276a:	55 1f       	adc	r21, r21
    276c:	44 0f       	add	r20, r20
    276e:	55 1f       	adc	r21, r21
    2770:	44 0f       	add	r20, r20
    2772:	55 1f       	adc	r21, r21
    2774:	64 2b       	or	r22, r20
    2776:	75 2b       	or	r23, r21
    2778:	26 95       	lsr	r18
    277a:	26 95       	lsr	r18
    277c:	26 95       	lsr	r18
    277e:	62 2b       	or	r22, r18
    2780:	0e 94 72 13 	call	0x26e4	; 0x26e4 <_ZN4UTFT7fillScrEj>
    2784:	08 95       	ret

00002786 <_ZN4UTFT8setColorEhhh>:
    2786:	e4 2f       	mov	r30, r20
    2788:	f0 e0       	ldi	r31, 0x00	; 0
    278a:	f5 95       	asr	r31
    278c:	e7 95       	ror	r30
    278e:	f5 95       	asr	r31
    2790:	e7 95       	ror	r30
    2792:	f5 95       	asr	r31
    2794:	e7 95       	ror	r30
    2796:	f5 95       	asr	r31
    2798:	e7 95       	ror	r30
    279a:	f5 95       	asr	r31
    279c:	e7 95       	ror	r30
    279e:	68 7f       	andi	r22, 0xF8	; 248
    27a0:	e6 2b       	or	r30, r22
    27a2:	dc 01       	movw	r26, r24
    27a4:	ec 93       	st	X, r30
    27a6:	4c 71       	andi	r20, 0x1C	; 28
    27a8:	50 e0       	ldi	r21, 0x00	; 0
    27aa:	44 0f       	add	r20, r20
    27ac:	55 1f       	adc	r21, r21
    27ae:	44 0f       	add	r20, r20
    27b0:	55 1f       	adc	r21, r21
    27b2:	44 0f       	add	r20, r20
    27b4:	55 1f       	adc	r21, r21
    27b6:	30 e0       	ldi	r19, 0x00	; 0
    27b8:	35 95       	asr	r19
    27ba:	27 95       	ror	r18
    27bc:	35 95       	asr	r19
    27be:	27 95       	ror	r18
    27c0:	35 95       	asr	r19
    27c2:	27 95       	ror	r18
    27c4:	42 2b       	or	r20, r18
    27c6:	11 96       	adiw	r26, 0x01	; 1
    27c8:	4c 93       	st	X, r20
    27ca:	08 95       	ret

000027cc <_ZN4UTFT12setBackColorEhhh>:
    27cc:	e4 2f       	mov	r30, r20
    27ce:	f0 e0       	ldi	r31, 0x00	; 0
    27d0:	f5 95       	asr	r31
    27d2:	e7 95       	ror	r30
    27d4:	f5 95       	asr	r31
    27d6:	e7 95       	ror	r30
    27d8:	f5 95       	asr	r31
    27da:	e7 95       	ror	r30
    27dc:	f5 95       	asr	r31
    27de:	e7 95       	ror	r30
    27e0:	f5 95       	asr	r31
    27e2:	e7 95       	ror	r30
    27e4:	68 7f       	andi	r22, 0xF8	; 248
    27e6:	e6 2b       	or	r30, r22
    27e8:	dc 01       	movw	r26, r24
    27ea:	12 96       	adiw	r26, 0x02	; 2
    27ec:	ec 93       	st	X, r30
    27ee:	12 97       	sbiw	r26, 0x02	; 2
    27f0:	4c 71       	andi	r20, 0x1C	; 28
    27f2:	50 e0       	ldi	r21, 0x00	; 0
    27f4:	44 0f       	add	r20, r20
    27f6:	55 1f       	adc	r21, r21
    27f8:	44 0f       	add	r20, r20
    27fa:	55 1f       	adc	r21, r21
    27fc:	44 0f       	add	r20, r20
    27fe:	55 1f       	adc	r21, r21
    2800:	30 e0       	ldi	r19, 0x00	; 0
    2802:	35 95       	asr	r19
    2804:	27 95       	ror	r18
    2806:	35 95       	asr	r19
    2808:	27 95       	ror	r18
    280a:	35 95       	asr	r19
    280c:	27 95       	ror	r18
    280e:	42 2b       	or	r20, r18
    2810:	13 96       	adiw	r26, 0x03	; 3
    2812:	4c 93       	st	X, r20
    2814:	08 95       	ret

00002816 <_ZN4UTFT7InitLCDEh>:
    2816:	cf 93       	push	r28
    2818:	df 93       	push	r29
    281a:	ec 01       	movw	r28, r24
    281c:	6c 83       	std	Y+4, r22	; 0x04
    281e:	2f ef       	ldi	r18, 0xFF	; 255
    2820:	4f ef       	ldi	r20, 0xFF	; 255
    2822:	6f ef       	ldi	r22, 0xFF	; 255
    2824:	0e 94 c3 13 	call	0x2786	; 0x2786 <_ZN4UTFT8setColorEhhh>
    2828:	20 e0       	ldi	r18, 0x00	; 0
    282a:	40 e0       	ldi	r20, 0x00	; 0
    282c:	60 e0       	ldi	r22, 0x00	; 0
    282e:	ce 01       	movw	r24, r28
    2830:	0e 94 e6 13 	call	0x27cc	; 0x27cc <_ZN4UTFT12setBackColorEhhh>
    2834:	1e 86       	std	Y+14, r1	; 0x0e
    2836:	1d 86       	std	Y+13, r1	; 0x0d
    2838:	df 91       	pop	r29
    283a:	cf 91       	pop	r28
    283c:	08 95       	ret

0000283e <_ZN4UTFT8setPixelEj>:
    283e:	87 2f       	mov	r24, r23
    2840:	0e 94 71 09 	call	0x12e2	; 0x12e2 <LCD_Write_DATA>
    2844:	08 95       	ret

00002846 <_ZN4UTFT9drawHLineEiii>:
    2846:	ef 92       	push	r14
    2848:	ff 92       	push	r15
    284a:	0f 93       	push	r16
    284c:	1f 93       	push	r17
    284e:	cf 93       	push	r28
    2850:	df 93       	push	r29
    2852:	7c 01       	movw	r14, r24
    2854:	e9 01       	movw	r28, r18
    2856:	dd 23       	and	r29, r29
    2858:	2c f4       	brge	.+10     	; 0x2864 <_ZN4UTFT9drawHLineEiii+0x1e>
    285a:	62 0f       	add	r22, r18
    285c:	73 1f       	adc	r23, r19
    285e:	d1 95       	neg	r29
    2860:	c1 95       	neg	r28
    2862:	d1 09       	sbc	r29, r1
    2864:	85 b3       	in	r24, 0x15	; 21
    2866:	8d 7f       	andi	r24, 0xFD	; 253
    2868:	85 bb       	out	0x15, r24	; 21
    286a:	9b 01       	movw	r18, r22
    286c:	2c 0f       	add	r18, r28
    286e:	3d 1f       	adc	r19, r29
    2870:	8a 01       	movw	r16, r20
    2872:	c7 01       	movw	r24, r14
    2874:	0e 94 f6 12 	call	0x25ec	; 0x25ec <_ZN4UTFT5setXYEjjjj>
    2878:	f7 01       	movw	r30, r14
    287a:	80 81       	ld	r24, Z
    287c:	82 bb       	out	0x12, r24	; 18
    287e:	81 81       	ldd	r24, Z+1	; 0x01
    2880:	8b bb       	out	0x1b, r24	; 27
    2882:	be 01       	movw	r22, r28
    2884:	dd 0f       	add	r29, r29
    2886:	88 0b       	sbc	r24, r24
    2888:	99 0b       	sbc	r25, r25
    288a:	0e 94 21 09 	call	0x1242	; 0x1242 <fastfill>
    288e:	8f ef       	ldi	r24, 0xFF	; 255
    2890:	8b bb       	out	0x1b, r24	; 27
    2892:	82 bb       	out	0x12, r24	; 18
    2894:	85 b3       	in	r24, 0x15	; 21
    2896:	82 60       	ori	r24, 0x02	; 2
    2898:	85 bb       	out	0x15, r24	; 21
    289a:	df 91       	pop	r29
    289c:	cf 91       	pop	r28
    289e:	1f 91       	pop	r17
    28a0:	0f 91       	pop	r16
    28a2:	ff 90       	pop	r15
    28a4:	ef 90       	pop	r14
    28a6:	08 95       	ret

000028a8 <_ZN4UTFT13fillRoundRectEiiii>:
    28a8:	2f 92       	push	r2
    28aa:	3f 92       	push	r3
    28ac:	4f 92       	push	r4
    28ae:	5f 92       	push	r5
    28b0:	6f 92       	push	r6
    28b2:	7f 92       	push	r7
    28b4:	8f 92       	push	r8
    28b6:	9f 92       	push	r9
    28b8:	af 92       	push	r10
    28ba:	bf 92       	push	r11
    28bc:	cf 92       	push	r12
    28be:	df 92       	push	r13
    28c0:	ef 92       	push	r14
    28c2:	ff 92       	push	r15
    28c4:	0f 93       	push	r16
    28c6:	1f 93       	push	r17
    28c8:	cf 93       	push	r28
    28ca:	df 93       	push	r29
    28cc:	5c 01       	movw	r10, r24
    28ce:	6b 01       	movw	r12, r22
    28d0:	4a 01       	movw	r8, r20
    28d2:	26 17       	cp	r18, r22
    28d4:	37 07       	cpc	r19, r23
    28d6:	24 f4       	brge	.+8      	; 0x28e0 <_ZN4UTFT13fillRoundRectEiiii+0x38>
    28d8:	8d 2d       	mov	r24, r13
    28da:	69 01       	movw	r12, r18
    28dc:	26 2f       	mov	r18, r22
    28de:	38 2f       	mov	r19, r24
    28e0:	08 15       	cp	r16, r8
    28e2:	19 05       	cpc	r17, r9
    28e4:	2c f4       	brge	.+10     	; 0x28f0 <_ZN4UTFT13fillRoundRectEiiii+0x48>
    28e6:	98 2d       	mov	r25, r8
    28e8:	89 2d       	mov	r24, r9
    28ea:	48 01       	movw	r8, r16
    28ec:	09 2f       	mov	r16, r25
    28ee:	18 2f       	mov	r17, r24
    28f0:	39 01       	movw	r6, r18
    28f2:	6c 18       	sub	r6, r12
    28f4:	7d 08       	sbc	r7, r13
    28f6:	85 e0       	ldi	r24, 0x05	; 5
    28f8:	68 16       	cp	r6, r24
    28fa:	71 04       	cpc	r7, r1
    28fc:	0c f4       	brge	.+2      	; 0x2900 <_ZN4UTFT13fillRoundRectEiiii+0x58>
    28fe:	5f c0       	rjmp	.+190    	; 0x29be <_ZN4UTFT13fillRoundRectEiiii+0x116>
    2900:	78 01       	movw	r14, r16
    2902:	e8 18       	sub	r14, r8
    2904:	f9 08       	sbc	r15, r9
    2906:	85 e0       	ldi	r24, 0x05	; 5
    2908:	e8 16       	cp	r14, r24
    290a:	f1 04       	cpc	r15, r1
    290c:	0c f4       	brge	.+2      	; 0x2910 <_ZN4UTFT13fillRoundRectEiiii+0x68>
    290e:	57 c0       	rjmp	.+174    	; 0x29be <_ZN4UTFT13fillRoundRectEiiii+0x116>
    2910:	c0 e0       	ldi	r28, 0x00	; 0
    2912:	d0 e0       	ldi	r29, 0x00	; 0
    2914:	c7 01       	movw	r24, r14
    2916:	ff 20       	and	r15, r15
    2918:	0c f4       	brge	.+2      	; 0x291c <_ZN4UTFT13fillRoundRectEiiii+0x74>
    291a:	01 96       	adiw	r24, 0x01	; 1
    291c:	95 95       	asr	r25
    291e:	87 95       	ror	r24
    2920:	01 96       	adiw	r24, 0x01	; 1
    2922:	c8 17       	cp	r28, r24
    2924:	d9 07       	cpc	r29, r25
    2926:	0c f0       	brlt	.+2      	; 0x292a <_ZN4UTFT13fillRoundRectEiiii+0x82>
    2928:	4a c0       	rjmp	.+148    	; 0x29be <_ZN4UTFT13fillRoundRectEiiii+0x116>
    292a:	20 97       	sbiw	r28, 0x00	; 0
    292c:	21 f0       	breq	.+8      	; 0x2936 <_ZN4UTFT13fillRoundRectEiiii+0x8e>
    292e:	c1 30       	cpi	r28, 0x01	; 1
    2930:	d1 05       	cpc	r29, r1
    2932:	d1 f0       	breq	.+52     	; 0x2968 <_ZN4UTFT13fillRoundRectEiiii+0xc0>
    2934:	32 c0       	rjmp	.+100    	; 0x299a <_ZN4UTFT13fillRoundRectEiiii+0xf2>
    2936:	23 01       	movw	r4, r6
    2938:	84 e0       	ldi	r24, 0x04	; 4
    293a:	48 1a       	sub	r4, r24
    293c:	51 08       	sbc	r5, r1
    293e:	92 01       	movw	r18, r4
    2940:	a4 01       	movw	r20, r8
    2942:	4c 0f       	add	r20, r28
    2944:	5d 1f       	adc	r21, r29
    2946:	16 01       	movw	r2, r12
    2948:	82 e0       	ldi	r24, 0x02	; 2
    294a:	28 0e       	add	r2, r24
    294c:	31 1c       	adc	r3, r1
    294e:	b1 01       	movw	r22, r2
    2950:	c5 01       	movw	r24, r10
    2952:	0e 94 23 14 	call	0x2846	; 0x2846 <_ZN4UTFT9drawHLineEiii>
    2956:	92 01       	movw	r18, r4
    2958:	a8 01       	movw	r20, r16
    295a:	4c 1b       	sub	r20, r28
    295c:	5d 0b       	sbc	r21, r29
    295e:	b1 01       	movw	r22, r2
    2960:	c5 01       	movw	r24, r10
    2962:	0e 94 23 14 	call	0x2846	; 0x2846 <_ZN4UTFT9drawHLineEiii>
    2966:	29 c0       	rjmp	.+82     	; 0x29ba <_ZN4UTFT13fillRoundRectEiiii+0x112>
    2968:	23 01       	movw	r4, r6
    296a:	82 e0       	ldi	r24, 0x02	; 2
    296c:	48 1a       	sub	r4, r24
    296e:	51 08       	sbc	r5, r1
    2970:	92 01       	movw	r18, r4
    2972:	a4 01       	movw	r20, r8
    2974:	4c 0f       	add	r20, r28
    2976:	5d 1f       	adc	r21, r29
    2978:	16 01       	movw	r2, r12
    297a:	8f ef       	ldi	r24, 0xFF	; 255
    297c:	28 1a       	sub	r2, r24
    297e:	38 0a       	sbc	r3, r24
    2980:	b1 01       	movw	r22, r2
    2982:	c5 01       	movw	r24, r10
    2984:	0e 94 23 14 	call	0x2846	; 0x2846 <_ZN4UTFT9drawHLineEiii>
    2988:	92 01       	movw	r18, r4
    298a:	a8 01       	movw	r20, r16
    298c:	4c 1b       	sub	r20, r28
    298e:	5d 0b       	sbc	r21, r29
    2990:	b1 01       	movw	r22, r2
    2992:	c5 01       	movw	r24, r10
    2994:	0e 94 23 14 	call	0x2846	; 0x2846 <_ZN4UTFT9drawHLineEiii>
    2998:	10 c0       	rjmp	.+32     	; 0x29ba <_ZN4UTFT13fillRoundRectEiiii+0x112>
    299a:	93 01       	movw	r18, r6
    299c:	a4 01       	movw	r20, r8
    299e:	4c 0f       	add	r20, r28
    29a0:	5d 1f       	adc	r21, r29
    29a2:	b6 01       	movw	r22, r12
    29a4:	c5 01       	movw	r24, r10
    29a6:	0e 94 23 14 	call	0x2846	; 0x2846 <_ZN4UTFT9drawHLineEiii>
    29aa:	93 01       	movw	r18, r6
    29ac:	a8 01       	movw	r20, r16
    29ae:	4c 1b       	sub	r20, r28
    29b0:	5d 0b       	sbc	r21, r29
    29b2:	b6 01       	movw	r22, r12
    29b4:	c5 01       	movw	r24, r10
    29b6:	0e 94 23 14 	call	0x2846	; 0x2846 <_ZN4UTFT9drawHLineEiii>
    29ba:	21 96       	adiw	r28, 0x01	; 1
    29bc:	ab cf       	rjmp	.-170    	; 0x2914 <_ZN4UTFT13fillRoundRectEiiii+0x6c>
    29be:	df 91       	pop	r29
    29c0:	cf 91       	pop	r28
    29c2:	1f 91       	pop	r17
    29c4:	0f 91       	pop	r16
    29c6:	ff 90       	pop	r15
    29c8:	ef 90       	pop	r14
    29ca:	df 90       	pop	r13
    29cc:	cf 90       	pop	r12
    29ce:	bf 90       	pop	r11
    29d0:	af 90       	pop	r10
    29d2:	9f 90       	pop	r9
    29d4:	8f 90       	pop	r8
    29d6:	7f 90       	pop	r7
    29d8:	6f 90       	pop	r6
    29da:	5f 90       	pop	r5
    29dc:	4f 90       	pop	r4
    29de:	3f 90       	pop	r3
    29e0:	2f 90       	pop	r2
    29e2:	08 95       	ret

000029e4 <_ZN4UTFT9drawVLineEiii>:
    29e4:	ef 92       	push	r14
    29e6:	ff 92       	push	r15
    29e8:	0f 93       	push	r16
    29ea:	1f 93       	push	r17
    29ec:	cf 93       	push	r28
    29ee:	df 93       	push	r29
    29f0:	7c 01       	movw	r14, r24
    29f2:	e9 01       	movw	r28, r18
    29f4:	dd 23       	and	r29, r29
    29f6:	2c f4       	brge	.+10     	; 0x2a02 <_ZN4UTFT9drawVLineEiii+0x1e>
    29f8:	42 0f       	add	r20, r18
    29fa:	53 1f       	adc	r21, r19
    29fc:	d1 95       	neg	r29
    29fe:	c1 95       	neg	r28
    2a00:	d1 09       	sbc	r29, r1
    2a02:	85 b3       	in	r24, 0x15	; 21
    2a04:	8d 7f       	andi	r24, 0xFD	; 253
    2a06:	85 bb       	out	0x15, r24	; 21
    2a08:	8a 01       	movw	r16, r20
    2a0a:	0c 0f       	add	r16, r28
    2a0c:	1d 1f       	adc	r17, r29
    2a0e:	9b 01       	movw	r18, r22
    2a10:	c7 01       	movw	r24, r14
    2a12:	0e 94 f6 12 	call	0x25ec	; 0x25ec <_ZN4UTFT5setXYEjjjj>
    2a16:	f7 01       	movw	r30, r14
    2a18:	80 81       	ld	r24, Z
    2a1a:	82 bb       	out	0x12, r24	; 18
    2a1c:	81 81       	ldd	r24, Z+1	; 0x01
    2a1e:	8b bb       	out	0x1b, r24	; 27
    2a20:	be 01       	movw	r22, r28
    2a22:	dd 0f       	add	r29, r29
    2a24:	88 0b       	sbc	r24, r24
    2a26:	99 0b       	sbc	r25, r25
    2a28:	0e 94 21 09 	call	0x1242	; 0x1242 <fastfill>
    2a2c:	8f ef       	ldi	r24, 0xFF	; 255
    2a2e:	8b bb       	out	0x1b, r24	; 27
    2a30:	82 bb       	out	0x12, r24	; 18
    2a32:	85 b3       	in	r24, 0x15	; 21
    2a34:	82 60       	ori	r24, 0x02	; 2
    2a36:	85 bb       	out	0x15, r24	; 21
    2a38:	df 91       	pop	r29
    2a3a:	cf 91       	pop	r28
    2a3c:	1f 91       	pop	r17
    2a3e:	0f 91       	pop	r16
    2a40:	ff 90       	pop	r15
    2a42:	ef 90       	pop	r14
    2a44:	08 95       	ret

00002a46 <_ZN4UTFT8drawLineEiiii>:
    2a46:	2f 92       	push	r2
    2a48:	3f 92       	push	r3
    2a4a:	4f 92       	push	r4
    2a4c:	5f 92       	push	r5
    2a4e:	6f 92       	push	r6
    2a50:	7f 92       	push	r7
    2a52:	8f 92       	push	r8
    2a54:	9f 92       	push	r9
    2a56:	af 92       	push	r10
    2a58:	bf 92       	push	r11
    2a5a:	cf 92       	push	r12
    2a5c:	df 92       	push	r13
    2a5e:	ef 92       	push	r14
    2a60:	ff 92       	push	r15
    2a62:	0f 93       	push	r16
    2a64:	1f 93       	push	r17
    2a66:	cf 93       	push	r28
    2a68:	df 93       	push	r29
    2a6a:	3c 01       	movw	r6, r24
    2a6c:	5b 01       	movw	r10, r22
    2a6e:	ea 01       	movw	r28, r20
    2a70:	49 01       	movw	r8, r18
    2a72:	40 17       	cp	r20, r16
    2a74:	51 07       	cpc	r21, r17
    2a76:	29 f4       	brne	.+10     	; 0x2a82 <_ZN4UTFT8drawLineEiiii+0x3c>
    2a78:	26 1b       	sub	r18, r22
    2a7a:	37 0b       	sbc	r19, r23
    2a7c:	0e 94 23 14 	call	0x2846	; 0x2846 <_ZN4UTFT9drawHLineEiii>
    2a80:	42 c1       	rjmp	.+644    	; 0x2d06 <_ZN4UTFT8drawLineEiiii+0x2c0>
    2a82:	26 17       	cp	r18, r22
    2a84:	37 07       	cpc	r19, r23
    2a86:	31 f4       	brne	.+12     	; 0x2a94 <_ZN4UTFT8drawLineEiiii+0x4e>
    2a88:	98 01       	movw	r18, r16
    2a8a:	24 1b       	sub	r18, r20
    2a8c:	35 0b       	sbc	r19, r21
    2a8e:	0e 94 f2 14 	call	0x29e4	; 0x29e4 <_ZN4UTFT9drawVLineEiii>
    2a92:	39 c1       	rjmp	.+626    	; 0x2d06 <_ZN4UTFT8drawLineEiiii+0x2c0>
    2a94:	dc 01       	movw	r26, r24
    2a96:	14 96       	adiw	r26, 0x04	; 4
    2a98:	8c 91       	ld	r24, X
    2a9a:	14 97       	sbiw	r26, 0x04	; 4
    2a9c:	81 30       	cpi	r24, 0x01	; 1
    2a9e:	79 f4       	brne	.+30     	; 0x2abe <_ZN4UTFT8drawLineEiiii+0x78>
    2aa0:	19 96       	adiw	r26, 0x09	; 9
    2aa2:	8d 91       	ld	r24, X+
    2aa4:	9d 91       	ld	r25, X+
    2aa6:	0d 90       	ld	r0, X+
    2aa8:	bc 91       	ld	r27, X
    2aaa:	a0 2d       	mov	r26, r0
    2aac:	9c 01       	movw	r18, r24
    2aae:	26 1b       	sub	r18, r22
    2ab0:	37 0b       	sbc	r19, r23
    2ab2:	88 19       	sub	r24, r8
    2ab4:	99 09       	sbc	r25, r9
    2ab6:	48 01       	movw	r8, r16
    2ab8:	8c 01       	movw	r16, r24
    2aba:	5a 01       	movw	r10, r20
    2abc:	e9 01       	movw	r28, r18
    2abe:	c4 01       	movw	r24, r8
    2ac0:	8a 19       	sub	r24, r10
    2ac2:	9b 09       	sbc	r25, r11
    2ac4:	7c 01       	movw	r14, r24
    2ac6:	22 f4       	brpl	.+8      	; 0x2ad0 <_ZN4UTFT8drawLineEiiii+0x8a>
    2ac8:	ee 24       	eor	r14, r14
    2aca:	ff 24       	eor	r15, r15
    2acc:	e8 1a       	sub	r14, r24
    2ace:	f9 0a       	sbc	r15, r25
    2ad0:	c8 01       	movw	r24, r16
    2ad2:	8c 1b       	sub	r24, r28
    2ad4:	9d 0b       	sbc	r25, r29
    2ad6:	6c 01       	movw	r12, r24
    2ad8:	22 f4       	brpl	.+8      	; 0x2ae2 <_ZN4UTFT8drawLineEiiii+0x9c>
    2ada:	cc 24       	eor	r12, r12
    2adc:	dd 24       	eor	r13, r13
    2ade:	c8 1a       	sub	r12, r24
    2ae0:	d9 0a       	sbc	r13, r25
    2ae2:	85 b3       	in	r24, 0x15	; 21
    2ae4:	8d 7f       	andi	r24, 0xFD	; 253
    2ae6:	85 bb       	out	0x15, r24	; 21
    2ae8:	60 e0       	ldi	r22, 0x00	; 0
    2aea:	7f ee       	ldi	r23, 0xEF	; 239
    2aec:	84 e4       	ldi	r24, 0x44	; 68
    2aee:	0e 94 7e 09 	call	0x12fc	; 0x12fc <LCD_Write_COM_DATA>
    2af2:	60 e0       	ldi	r22, 0x00	; 0
    2af4:	70 e0       	ldi	r23, 0x00	; 0
    2af6:	85 e4       	ldi	r24, 0x45	; 69
    2af8:	0e 94 7e 09 	call	0x12fc	; 0x12fc <LCD_Write_COM_DATA>
    2afc:	6f e3       	ldi	r22, 0x3F	; 63
    2afe:	71 e0       	ldi	r23, 0x01	; 1
    2b00:	86 e4       	ldi	r24, 0x46	; 70
    2b02:	0e 94 7e 09 	call	0x12fc	; 0x12fc <LCD_Write_COM_DATA>
    2b06:	b5 01       	movw	r22, r10
    2b08:	8e e4       	ldi	r24, 0x4E	; 78
    2b0a:	0e 94 7e 09 	call	0x12fc	; 0x12fc <LCD_Write_COM_DATA>
    2b0e:	be 01       	movw	r22, r28
    2b10:	8f e4       	ldi	r24, 0x4F	; 79
    2b12:	0e 94 7e 09 	call	0x12fc	; 0x12fc <LCD_Write_COM_DATA>
    2b16:	ec 14       	cp	r14, r12
    2b18:	fd 04       	cpc	r15, r13
    2b1a:	08 f0       	brcs	.+2      	; 0x2b1e <_ZN4UTFT8drawLineEiiii+0xd8>
    2b1c:	79 c0       	rjmp	.+242    	; 0x2c10 <_ZN4UTFT8drawLineEiiii+0x1ca>
    2b1e:	c0 17       	cp	r28, r16
    2b20:	d1 07       	cpc	r29, r17
    2b22:	dc f5       	brge	.+118    	; 0x2b9a <_ZN4UTFT8drawLineEiiii+0x154>
    2b24:	a8 14       	cp	r10, r8
    2b26:	b9 04       	cpc	r11, r9
    2b28:	e4 f4       	brge	.+56     	; 0x2b62 <_ZN4UTFT8drawLineEiiii+0x11c>
    2b2a:	68 e7       	ldi	r22, 0x78	; 120
    2b2c:	70 e6       	ldi	r23, 0x60	; 96
    2b2e:	81 e1       	ldi	r24, 0x11	; 17
    2b30:	0e 94 7e 09 	call	0x12fc	; 0x12fc <LCD_Write_COM_DATA>
    2b34:	82 e2       	ldi	r24, 0x22	; 34
    2b36:	0e 94 6a 09 	call	0x12d4	; 0x12d4 <LCD_Write_COM>
    2b3a:	85 b3       	in	r24, 0x15	; 21
    2b3c:	80 64       	ori	r24, 0x40	; 64
    2b3e:	85 bb       	out	0x15, r24	; 21
    2b40:	d3 01       	movw	r26, r6
    2b42:	11 96       	adiw	r26, 0x01	; 1
    2b44:	ec 91       	ld	r30, X
    2b46:	11 97       	sbiw	r26, 0x01	; 1
    2b48:	8c 91       	ld	r24, X
    2b4a:	90 e0       	ldi	r25, 0x00	; 0
    2b4c:	98 2f       	mov	r25, r24
    2b4e:	88 27       	eor	r24, r24
    2b50:	2c 2f       	mov	r18, r28
    2b52:	3d 2f       	mov	r19, r29
    2b54:	a4 01       	movw	r20, r8
    2b56:	6a 2d       	mov	r22, r10
    2b58:	7b 2d       	mov	r23, r11
    2b5a:	8e 2b       	or	r24, r30
    2b5c:	0e 94 8f 09 	call	0x131e	; 0x131e <fastlineAPP>
    2b60:	cf c0       	rjmp	.+414    	; 0x2d00 <_ZN4UTFT8drawLineEiiii+0x2ba>
    2b62:	68 e7       	ldi	r22, 0x78	; 120
    2b64:	70 e6       	ldi	r23, 0x60	; 96
    2b66:	81 e1       	ldi	r24, 0x11	; 17
    2b68:	0e 94 7e 09 	call	0x12fc	; 0x12fc <LCD_Write_COM_DATA>
    2b6c:	82 e2       	ldi	r24, 0x22	; 34
    2b6e:	0e 94 6a 09 	call	0x12d4	; 0x12d4 <LCD_Write_COM>
    2b72:	85 b3       	in	r24, 0x15	; 21
    2b74:	80 64       	ori	r24, 0x40	; 64
    2b76:	85 bb       	out	0x15, r24	; 21
    2b78:	d3 01       	movw	r26, r6
    2b7a:	11 96       	adiw	r26, 0x01	; 1
    2b7c:	ec 91       	ld	r30, X
    2b7e:	11 97       	sbiw	r26, 0x01	; 1
    2b80:	8c 91       	ld	r24, X
    2b82:	90 e0       	ldi	r25, 0x00	; 0
    2b84:	98 2f       	mov	r25, r24
    2b86:	88 27       	eor	r24, r24
    2b88:	2c 2f       	mov	r18, r28
    2b8a:	3d 2f       	mov	r19, r29
    2b8c:	a4 01       	movw	r20, r8
    2b8e:	6a 2d       	mov	r22, r10
    2b90:	7b 2d       	mov	r23, r11
    2b92:	8e 2b       	or	r24, r30
    2b94:	0e 94 1b 0a 	call	0x1436	; 0x1436 <fastlineANP>
    2b98:	b3 c0       	rjmp	.+358    	; 0x2d00 <_ZN4UTFT8drawLineEiiii+0x2ba>
    2b9a:	a8 14       	cp	r10, r8
    2b9c:	b9 04       	cpc	r11, r9
    2b9e:	e4 f4       	brge	.+56     	; 0x2bd8 <_ZN4UTFT8drawLineEiiii+0x192>
    2ba0:	68 e5       	ldi	r22, 0x58	; 88
    2ba2:	70 e6       	ldi	r23, 0x60	; 96
    2ba4:	81 e1       	ldi	r24, 0x11	; 17
    2ba6:	0e 94 7e 09 	call	0x12fc	; 0x12fc <LCD_Write_COM_DATA>
    2baa:	82 e2       	ldi	r24, 0x22	; 34
    2bac:	0e 94 6a 09 	call	0x12d4	; 0x12d4 <LCD_Write_COM>
    2bb0:	85 b3       	in	r24, 0x15	; 21
    2bb2:	80 64       	ori	r24, 0x40	; 64
    2bb4:	85 bb       	out	0x15, r24	; 21
    2bb6:	d3 01       	movw	r26, r6
    2bb8:	11 96       	adiw	r26, 0x01	; 1
    2bba:	ec 91       	ld	r30, X
    2bbc:	11 97       	sbiw	r26, 0x01	; 1
    2bbe:	8c 91       	ld	r24, X
    2bc0:	90 e0       	ldi	r25, 0x00	; 0
    2bc2:	98 2f       	mov	r25, r24
    2bc4:	88 27       	eor	r24, r24
    2bc6:	2c 2f       	mov	r18, r28
    2bc8:	3d 2f       	mov	r19, r29
    2bca:	a4 01       	movw	r20, r8
    2bcc:	6a 2d       	mov	r22, r10
    2bce:	7b 2d       	mov	r23, r11
    2bd0:	8e 2b       	or	r24, r30
    2bd2:	0e 94 d5 09 	call	0x13aa	; 0x13aa <fastlineAPN>
    2bd6:	94 c0       	rjmp	.+296    	; 0x2d00 <_ZN4UTFT8drawLineEiiii+0x2ba>
    2bd8:	68 e5       	ldi	r22, 0x58	; 88
    2bda:	70 e6       	ldi	r23, 0x60	; 96
    2bdc:	81 e1       	ldi	r24, 0x11	; 17
    2bde:	0e 94 7e 09 	call	0x12fc	; 0x12fc <LCD_Write_COM_DATA>
    2be2:	82 e2       	ldi	r24, 0x22	; 34
    2be4:	0e 94 6a 09 	call	0x12d4	; 0x12d4 <LCD_Write_COM>
    2be8:	85 b3       	in	r24, 0x15	; 21
    2bea:	80 64       	ori	r24, 0x40	; 64
    2bec:	85 bb       	out	0x15, r24	; 21
    2bee:	d3 01       	movw	r26, r6
    2bf0:	11 96       	adiw	r26, 0x01	; 1
    2bf2:	ec 91       	ld	r30, X
    2bf4:	11 97       	sbiw	r26, 0x01	; 1
    2bf6:	8c 91       	ld	r24, X
    2bf8:	90 e0       	ldi	r25, 0x00	; 0
    2bfa:	98 2f       	mov	r25, r24
    2bfc:	88 27       	eor	r24, r24
    2bfe:	2c 2f       	mov	r18, r28
    2c00:	3d 2f       	mov	r19, r29
    2c02:	a4 01       	movw	r20, r8
    2c04:	6a 2d       	mov	r22, r10
    2c06:	7b 2d       	mov	r23, r11
    2c08:	8e 2b       	or	r24, r30
    2c0a:	0e 94 61 0a 	call	0x14c2	; 0x14c2 <fastlineANN>
    2c0e:	78 c0       	rjmp	.+240    	; 0x2d00 <_ZN4UTFT8drawLineEiiii+0x2ba>
    2c10:	c0 17       	cp	r28, r16
    2c12:	d1 07       	cpc	r29, r17
    2c14:	dc f5       	brge	.+118    	; 0x2c8c <_ZN4UTFT8drawLineEiiii+0x246>
    2c16:	a8 14       	cp	r10, r8
    2c18:	b9 04       	cpc	r11, r9
    2c1a:	e4 f4       	brge	.+56     	; 0x2c54 <_ZN4UTFT8drawLineEiiii+0x20e>
    2c1c:	60 e7       	ldi	r22, 0x70	; 112
    2c1e:	70 e6       	ldi	r23, 0x60	; 96
    2c20:	81 e1       	ldi	r24, 0x11	; 17
    2c22:	0e 94 7e 09 	call	0x12fc	; 0x12fc <LCD_Write_COM_DATA>
    2c26:	82 e2       	ldi	r24, 0x22	; 34
    2c28:	0e 94 6a 09 	call	0x12d4	; 0x12d4 <LCD_Write_COM>
    2c2c:	85 b3       	in	r24, 0x15	; 21
    2c2e:	80 64       	ori	r24, 0x40	; 64
    2c30:	85 bb       	out	0x15, r24	; 21
    2c32:	d3 01       	movw	r26, r6
    2c34:	11 96       	adiw	r26, 0x01	; 1
    2c36:	ec 91       	ld	r30, X
    2c38:	11 97       	sbiw	r26, 0x01	; 1
    2c3a:	8c 91       	ld	r24, X
    2c3c:	90 e0       	ldi	r25, 0x00	; 0
    2c3e:	98 2f       	mov	r25, r24
    2c40:	88 27       	eor	r24, r24
    2c42:	2c 2f       	mov	r18, r28
    2c44:	3d 2f       	mov	r19, r29
    2c46:	a4 01       	movw	r20, r8
    2c48:	6a 2d       	mov	r22, r10
    2c4a:	7b 2d       	mov	r23, r11
    2c4c:	8e 2b       	or	r24, r30
    2c4e:	0e 94 a7 0a 	call	0x154e	; 0x154e <fastlineBPP>
    2c52:	56 c0       	rjmp	.+172    	; 0x2d00 <_ZN4UTFT8drawLineEiiii+0x2ba>
    2c54:	60 e6       	ldi	r22, 0x60	; 96
    2c56:	70 e6       	ldi	r23, 0x60	; 96
    2c58:	81 e1       	ldi	r24, 0x11	; 17
    2c5a:	0e 94 7e 09 	call	0x12fc	; 0x12fc <LCD_Write_COM_DATA>
    2c5e:	82 e2       	ldi	r24, 0x22	; 34
    2c60:	0e 94 6a 09 	call	0x12d4	; 0x12d4 <LCD_Write_COM>
    2c64:	85 b3       	in	r24, 0x15	; 21
    2c66:	80 64       	ori	r24, 0x40	; 64
    2c68:	85 bb       	out	0x15, r24	; 21
    2c6a:	d3 01       	movw	r26, r6
    2c6c:	11 96       	adiw	r26, 0x01	; 1
    2c6e:	ec 91       	ld	r30, X
    2c70:	11 97       	sbiw	r26, 0x01	; 1
    2c72:	8c 91       	ld	r24, X
    2c74:	90 e0       	ldi	r25, 0x00	; 0
    2c76:	98 2f       	mov	r25, r24
    2c78:	88 27       	eor	r24, r24
    2c7a:	2c 2f       	mov	r18, r28
    2c7c:	3d 2f       	mov	r19, r29
    2c7e:	a4 01       	movw	r20, r8
    2c80:	6a 2d       	mov	r22, r10
    2c82:	7b 2d       	mov	r23, r11
    2c84:	8e 2b       	or	r24, r30
    2c86:	0e 94 33 0b 	call	0x1666	; 0x1666 <fastlineBNP>
    2c8a:	3a c0       	rjmp	.+116    	; 0x2d00 <_ZN4UTFT8drawLineEiiii+0x2ba>
    2c8c:	a8 14       	cp	r10, r8
    2c8e:	b9 04       	cpc	r11, r9
    2c90:	e4 f4       	brge	.+56     	; 0x2cca <_ZN4UTFT8drawLineEiiii+0x284>
    2c92:	60 e5       	ldi	r22, 0x50	; 80
    2c94:	70 e6       	ldi	r23, 0x60	; 96
    2c96:	81 e1       	ldi	r24, 0x11	; 17
    2c98:	0e 94 7e 09 	call	0x12fc	; 0x12fc <LCD_Write_COM_DATA>
    2c9c:	82 e2       	ldi	r24, 0x22	; 34
    2c9e:	0e 94 6a 09 	call	0x12d4	; 0x12d4 <LCD_Write_COM>
    2ca2:	85 b3       	in	r24, 0x15	; 21
    2ca4:	80 64       	ori	r24, 0x40	; 64
    2ca6:	85 bb       	out	0x15, r24	; 21
    2ca8:	d3 01       	movw	r26, r6
    2caa:	11 96       	adiw	r26, 0x01	; 1
    2cac:	ec 91       	ld	r30, X
    2cae:	11 97       	sbiw	r26, 0x01	; 1
    2cb0:	8c 91       	ld	r24, X
    2cb2:	90 e0       	ldi	r25, 0x00	; 0
    2cb4:	98 2f       	mov	r25, r24
    2cb6:	88 27       	eor	r24, r24
    2cb8:	2c 2f       	mov	r18, r28
    2cba:	3d 2f       	mov	r19, r29
    2cbc:	a4 01       	movw	r20, r8
    2cbe:	6a 2d       	mov	r22, r10
    2cc0:	7b 2d       	mov	r23, r11
    2cc2:	8e 2b       	or	r24, r30
    2cc4:	0e 94 ed 0a 	call	0x15da	; 0x15da <fastlineBPN>
    2cc8:	1b c0       	rjmp	.+54     	; 0x2d00 <_ZN4UTFT8drawLineEiiii+0x2ba>
    2cca:	60 e6       	ldi	r22, 0x60	; 96
    2ccc:	70 e6       	ldi	r23, 0x60	; 96
    2cce:	81 e1       	ldi	r24, 0x11	; 17
    2cd0:	0e 94 7e 09 	call	0x12fc	; 0x12fc <LCD_Write_COM_DATA>
    2cd4:	82 e2       	ldi	r24, 0x22	; 34
    2cd6:	0e 94 6a 09 	call	0x12d4	; 0x12d4 <LCD_Write_COM>
    2cda:	85 b3       	in	r24, 0x15	; 21
    2cdc:	80 64       	ori	r24, 0x40	; 64
    2cde:	85 bb       	out	0x15, r24	; 21
    2ce0:	d3 01       	movw	r26, r6
    2ce2:	11 96       	adiw	r26, 0x01	; 1
    2ce4:	ec 91       	ld	r30, X
    2ce6:	11 97       	sbiw	r26, 0x01	; 1
    2ce8:	8c 91       	ld	r24, X
    2cea:	90 e0       	ldi	r25, 0x00	; 0
    2cec:	98 2f       	mov	r25, r24
    2cee:	88 27       	eor	r24, r24
    2cf0:	2c 2f       	mov	r18, r28
    2cf2:	3d 2f       	mov	r19, r29
    2cf4:	a4 01       	movw	r20, r8
    2cf6:	6a 2d       	mov	r22, r10
    2cf8:	7b 2d       	mov	r23, r11
    2cfa:	8e 2b       	or	r24, r30
    2cfc:	0e 94 79 0b 	call	0x16f2	; 0x16f2 <fastlineBNN>
    2d00:	85 b3       	in	r24, 0x15	; 21
    2d02:	82 60       	ori	r24, 0x02	; 2
    2d04:	85 bb       	out	0x15, r24	; 21
    2d06:	df 91       	pop	r29
    2d08:	cf 91       	pop	r28
    2d0a:	1f 91       	pop	r17
    2d0c:	0f 91       	pop	r16
    2d0e:	ff 90       	pop	r15
    2d10:	ef 90       	pop	r14
    2d12:	df 90       	pop	r13
    2d14:	cf 90       	pop	r12
    2d16:	bf 90       	pop	r11
    2d18:	af 90       	pop	r10
    2d1a:	9f 90       	pop	r9
    2d1c:	8f 90       	pop	r8
    2d1e:	7f 90       	pop	r7
    2d20:	6f 90       	pop	r6
    2d22:	5f 90       	pop	r5
    2d24:	4f 90       	pop	r4
    2d26:	3f 90       	pop	r3
    2d28:	2f 90       	pop	r2
    2d2a:	08 95       	ret

00002d2c <_ZN4UTFT9printCharEhii>:
    2d2c:	af 92       	push	r10
    2d2e:	bf 92       	push	r11
    2d30:	cf 92       	push	r12
    2d32:	df 92       	push	r13
    2d34:	ef 92       	push	r14
    2d36:	ff 92       	push	r15
    2d38:	0f 93       	push	r16
    2d3a:	1f 93       	push	r17
    2d3c:	cf 93       	push	r28
    2d3e:	df 93       	push	r29
    2d40:	ec 01       	movw	r28, r24
    2d42:	7a 01       	movw	r14, r20
    2d44:	89 01       	movw	r16, r18
    2d46:	85 b3       	in	r24, 0x15	; 21
    2d48:	8d 7f       	andi	r24, 0xFD	; 253
    2d4a:	85 bb       	out	0x15, r24	; 21
    2d4c:	8c 81       	ldd	r24, Y+4	; 0x04
    2d4e:	81 11       	cpse	r24, r1
    2d50:	69 c0       	rjmp	.+210    	; 0x2e24 <_ZN4UTFT9printCharEhii+0xf8>
    2d52:	29 89       	ldd	r18, Y+17	; 0x11
    2d54:	86 2f       	mov	r24, r22
    2d56:	90 e0       	ldi	r25, 0x00	; 0
    2d58:	82 1b       	sub	r24, r18
    2d5a:	91 09       	sbc	r25, r1
    2d5c:	4f 85       	ldd	r20, Y+15	; 0x0f
    2d5e:	54 2f       	mov	r21, r20
    2d60:	56 95       	lsr	r21
    2d62:	56 95       	lsr	r21
    2d64:	56 95       	lsr	r21
    2d66:	28 89       	ldd	r18, Y+16	; 0x10
    2d68:	30 e0       	ldi	r19, 0x00	; 0
    2d6a:	52 9f       	mul	r21, r18
    2d6c:	b0 01       	movw	r22, r0
    2d6e:	53 9f       	mul	r21, r19
    2d70:	70 0d       	add	r23, r0
    2d72:	11 24       	eor	r1, r1
    2d74:	86 9f       	mul	r24, r22
    2d76:	60 01       	movw	r12, r0
    2d78:	87 9f       	mul	r24, r23
    2d7a:	d0 0c       	add	r13, r0
    2d7c:	96 9f       	mul	r25, r22
    2d7e:	d0 0c       	add	r13, r0
    2d80:	11 24       	eor	r1, r1
    2d82:	84 e0       	ldi	r24, 0x04	; 4
    2d84:	c8 0e       	add	r12, r24
    2d86:	d1 1c       	adc	r13, r1
    2d88:	c7 01       	movw	r24, r14
    2d8a:	84 0f       	add	r24, r20
    2d8c:	91 1d       	adc	r25, r1
    2d8e:	20 0f       	add	r18, r16
    2d90:	31 1f       	adc	r19, r17
    2d92:	59 01       	movw	r10, r18
    2d94:	41 e0       	ldi	r20, 0x01	; 1
    2d96:	a4 1a       	sub	r10, r20
    2d98:	b1 08       	sbc	r11, r1
    2d9a:	60 e0       	ldi	r22, 0x00	; 0
    2d9c:	70 e0       	ldi	r23, 0x00	; 0
    2d9e:	7f ef       	ldi	r23, 0xFF	; 255
    2da0:	78 0f       	add	r23, r24
    2da2:	6e 0d       	add	r22, r14
    2da4:	7f 1d       	adc	r23, r15
    2da6:	84 e4       	ldi	r24, 0x44	; 68
    2da8:	0e 94 7e 09 	call	0x12fc	; 0x12fc <LCD_Write_COM_DATA>
    2dac:	b8 01       	movw	r22, r16
    2dae:	85 e4       	ldi	r24, 0x45	; 69
    2db0:	0e 94 7e 09 	call	0x12fc	; 0x12fc <LCD_Write_COM_DATA>
    2db4:	b5 01       	movw	r22, r10
    2db6:	86 e4       	ldi	r24, 0x46	; 70
    2db8:	0e 94 7e 09 	call	0x12fc	; 0x12fc <LCD_Write_COM_DATA>
    2dbc:	b7 01       	movw	r22, r14
    2dbe:	8e e4       	ldi	r24, 0x4E	; 78
    2dc0:	0e 94 7e 09 	call	0x12fc	; 0x12fc <LCD_Write_COM_DATA>
    2dc4:	b8 01       	movw	r22, r16
    2dc6:	8f e4       	ldi	r24, 0x4F	; 79
    2dc8:	0e 94 7e 09 	call	0x12fc	; 0x12fc <LCD_Write_COM_DATA>
    2dcc:	60 e7       	ldi	r22, 0x70	; 112
    2dce:	70 e6       	ldi	r23, 0x60	; 96
    2dd0:	81 e1       	ldi	r24, 0x11	; 17
    2dd2:	0e 94 7e 09 	call	0x12fc	; 0x12fc <LCD_Write_COM_DATA>
    2dd6:	82 e2       	ldi	r24, 0x22	; 34
    2dd8:	0e 94 6a 09 	call	0x12d4	; 0x12d4 <LCD_Write_COM>
    2ddc:	85 b3       	in	r24, 0x15	; 21
    2dde:	80 64       	ori	r24, 0x40	; 64
    2de0:	85 bb       	out	0x15, r24	; 21
    2de2:	2a 81       	ldd	r18, Y+2	; 0x02
    2de4:	30 e0       	ldi	r19, 0x00	; 0
    2de6:	32 2f       	mov	r19, r18
    2de8:	22 27       	eor	r18, r18
    2dea:	8b 81       	ldd	r24, Y+3	; 0x03
    2dec:	28 2b       	or	r18, r24
    2dee:	48 81       	ld	r20, Y
    2df0:	50 e0       	ldi	r21, 0x00	; 0
    2df2:	54 2f       	mov	r21, r20
    2df4:	44 27       	eor	r20, r20
    2df6:	89 81       	ldd	r24, Y+1	; 0x01
    2df8:	48 2b       	or	r20, r24
    2dfa:	6d 85       	ldd	r22, Y+13	; 0x0d
    2dfc:	7e 85       	ldd	r23, Y+14	; 0x0e
    2dfe:	6c 0d       	add	r22, r12
    2e00:	7d 1d       	adc	r23, r13
    2e02:	88 89       	ldd	r24, Y+16	; 0x10
    2e04:	9f 85       	ldd	r25, Y+15	; 0x0f
    2e06:	89 9f       	mul	r24, r25
    2e08:	c0 01       	movw	r24, r0
    2e0a:	11 24       	eor	r1, r1
    2e0c:	99 23       	and	r25, r25
    2e0e:	0c f4       	brge	.+2      	; 0x2e12 <_ZN4UTFT9printCharEhii+0xe6>
    2e10:	07 96       	adiw	r24, 0x07	; 7
    2e12:	95 95       	asr	r25
    2e14:	87 95       	ror	r24
    2e16:	95 95       	asr	r25
    2e18:	87 95       	ror	r24
    2e1a:	95 95       	asr	r25
    2e1c:	87 95       	ror	r24
    2e1e:	0e 94 92 08 	call	0x1124	; 0x1124 <fastbitmap_1bit>
    2e22:	6f c0       	rjmp	.+222    	; 0x2f02 <_ZN4UTFT9printCharEhii+0x1d6>
    2e24:	29 89       	ldd	r18, Y+17	; 0x11
    2e26:	86 2f       	mov	r24, r22
    2e28:	90 e0       	ldi	r25, 0x00	; 0
    2e2a:	82 1b       	sub	r24, r18
    2e2c:	91 09       	sbc	r25, r1
    2e2e:	4f 85       	ldd	r20, Y+15	; 0x0f
    2e30:	54 2f       	mov	r21, r20
    2e32:	56 95       	lsr	r21
    2e34:	56 95       	lsr	r21
    2e36:	56 95       	lsr	r21
    2e38:	28 89       	ldd	r18, Y+16	; 0x10
    2e3a:	30 e0       	ldi	r19, 0x00	; 0
    2e3c:	52 9f       	mul	r21, r18
    2e3e:	b0 01       	movw	r22, r0
    2e40:	53 9f       	mul	r21, r19
    2e42:	70 0d       	add	r23, r0
    2e44:	11 24       	eor	r1, r1
    2e46:	86 9f       	mul	r24, r22
    2e48:	60 01       	movw	r12, r0
    2e4a:	87 9f       	mul	r24, r23
    2e4c:	d0 0c       	add	r13, r0
    2e4e:	96 9f       	mul	r25, r22
    2e50:	d0 0c       	add	r13, r0
    2e52:	11 24       	eor	r1, r1
    2e54:	84 e0       	ldi	r24, 0x04	; 4
    2e56:	c8 0e       	add	r12, r24
    2e58:	d1 1c       	adc	r13, r1
    2e5a:	c7 01       	movw	r24, r14
    2e5c:	84 0f       	add	r24, r20
    2e5e:	91 1d       	adc	r25, r1
    2e60:	01 97       	sbiw	r24, 0x01	; 1
    2e62:	20 0f       	add	r18, r16
    2e64:	31 1f       	adc	r19, r17
    2e66:	49 85       	ldd	r20, Y+9	; 0x09
    2e68:	5a 85       	ldd	r21, Y+10	; 0x0a
    2e6a:	6b 85       	ldd	r22, Y+11	; 0x0b
    2e6c:	7c 85       	ldd	r23, Y+12	; 0x0c
    2e6e:	5a 01       	movw	r10, r20
    2e70:	ae 18       	sub	r10, r14
    2e72:	bf 08       	sbc	r11, r15
    2e74:	7a 01       	movw	r14, r20
    2e76:	e8 1a       	sub	r14, r24
    2e78:	f9 0a       	sbc	r15, r25
    2e7a:	60 e0       	ldi	r22, 0x00	; 0
    2e7c:	70 e0       	ldi	r23, 0x00	; 0
    2e7e:	7f ef       	ldi	r23, 0xFF	; 255
    2e80:	72 0f       	add	r23, r18
    2e82:	60 0f       	add	r22, r16
    2e84:	71 1f       	adc	r23, r17
    2e86:	84 e4       	ldi	r24, 0x44	; 68
    2e88:	0e 94 7e 09 	call	0x12fc	; 0x12fc <LCD_Write_COM_DATA>
    2e8c:	b7 01       	movw	r22, r14
    2e8e:	85 e4       	ldi	r24, 0x45	; 69
    2e90:	0e 94 7e 09 	call	0x12fc	; 0x12fc <LCD_Write_COM_DATA>
    2e94:	b5 01       	movw	r22, r10
    2e96:	86 e4       	ldi	r24, 0x46	; 70
    2e98:	0e 94 7e 09 	call	0x12fc	; 0x12fc <LCD_Write_COM_DATA>
    2e9c:	b8 01       	movw	r22, r16
    2e9e:	8e e4       	ldi	r24, 0x4E	; 78
    2ea0:	0e 94 7e 09 	call	0x12fc	; 0x12fc <LCD_Write_COM_DATA>
    2ea4:	b5 01       	movw	r22, r10
    2ea6:	8f e4       	ldi	r24, 0x4F	; 79
    2ea8:	0e 94 7e 09 	call	0x12fc	; 0x12fc <LCD_Write_COM_DATA>
    2eac:	68 e5       	ldi	r22, 0x58	; 88
    2eae:	70 e6       	ldi	r23, 0x60	; 96
    2eb0:	81 e1       	ldi	r24, 0x11	; 17
    2eb2:	0e 94 7e 09 	call	0x12fc	; 0x12fc <LCD_Write_COM_DATA>
    2eb6:	82 e2       	ldi	r24, 0x22	; 34
    2eb8:	0e 94 6a 09 	call	0x12d4	; 0x12d4 <LCD_Write_COM>
    2ebc:	85 b3       	in	r24, 0x15	; 21
    2ebe:	80 64       	ori	r24, 0x40	; 64
    2ec0:	85 bb       	out	0x15, r24	; 21
    2ec2:	2a 81       	ldd	r18, Y+2	; 0x02
    2ec4:	30 e0       	ldi	r19, 0x00	; 0
    2ec6:	32 2f       	mov	r19, r18
    2ec8:	22 27       	eor	r18, r18
    2eca:	8b 81       	ldd	r24, Y+3	; 0x03
    2ecc:	28 2b       	or	r18, r24
    2ece:	48 81       	ld	r20, Y
    2ed0:	50 e0       	ldi	r21, 0x00	; 0
    2ed2:	54 2f       	mov	r21, r20
    2ed4:	44 27       	eor	r20, r20
    2ed6:	89 81       	ldd	r24, Y+1	; 0x01
    2ed8:	48 2b       	or	r20, r24
    2eda:	6d 85       	ldd	r22, Y+13	; 0x0d
    2edc:	7e 85       	ldd	r23, Y+14	; 0x0e
    2ede:	6c 0d       	add	r22, r12
    2ee0:	7d 1d       	adc	r23, r13
    2ee2:	88 89       	ldd	r24, Y+16	; 0x10
    2ee4:	9f 85       	ldd	r25, Y+15	; 0x0f
    2ee6:	89 9f       	mul	r24, r25
    2ee8:	c0 01       	movw	r24, r0
    2eea:	11 24       	eor	r1, r1
    2eec:	99 23       	and	r25, r25
    2eee:	0c f4       	brge	.+2      	; 0x2ef2 <_ZN4UTFT9printCharEhii+0x1c6>
    2ef0:	07 96       	adiw	r24, 0x07	; 7
    2ef2:	95 95       	asr	r25
    2ef4:	87 95       	ror	r24
    2ef6:	95 95       	asr	r25
    2ef8:	87 95       	ror	r24
    2efa:	95 95       	asr	r25
    2efc:	87 95       	ror	r24
    2efe:	0e 94 92 08 	call	0x1124	; 0x1124 <fastbitmap_1bit>
    2f02:	85 b3       	in	r24, 0x15	; 21
    2f04:	82 60       	ori	r24, 0x02	; 2
    2f06:	85 bb       	out	0x15, r24	; 21
    2f08:	df 91       	pop	r29
    2f0a:	cf 91       	pop	r28
    2f0c:	1f 91       	pop	r17
    2f0e:	0f 91       	pop	r16
    2f10:	ff 90       	pop	r15
    2f12:	ef 90       	pop	r14
    2f14:	df 90       	pop	r13
    2f16:	cf 90       	pop	r12
    2f18:	bf 90       	pop	r11
    2f1a:	af 90       	pop	r10
    2f1c:	08 95       	ret

00002f1e <_ZN4UTFT10rotateCharEhiiii>:
    2f1e:	2f 92       	push	r2
    2f20:	3f 92       	push	r3
    2f22:	4f 92       	push	r4
    2f24:	5f 92       	push	r5
    2f26:	6f 92       	push	r6
    2f28:	7f 92       	push	r7
    2f2a:	8f 92       	push	r8
    2f2c:	9f 92       	push	r9
    2f2e:	af 92       	push	r10
    2f30:	bf 92       	push	r11
    2f32:	cf 92       	push	r12
    2f34:	df 92       	push	r13
    2f36:	ef 92       	push	r14
    2f38:	ff 92       	push	r15
    2f3a:	0f 93       	push	r16
    2f3c:	1f 93       	push	r17
    2f3e:	cf 93       	push	r28
    2f40:	df 93       	push	r29
    2f42:	cd b7       	in	r28, 0x3d	; 61
    2f44:	de b7       	in	r29, 0x3e	; 62
    2f46:	6b 97       	sbiw	r28, 0x1b	; 27
    2f48:	0f b6       	in	r0, 0x3f	; 63
    2f4a:	f8 94       	cli
    2f4c:	de bf       	out	0x3e, r29	; 62
    2f4e:	0f be       	out	0x3f, r0	; 63
    2f50:	cd bf       	out	0x3d, r28	; 61
    2f52:	5c 01       	movw	r10, r24
    2f54:	69 83       	std	Y+1, r22	; 0x01
    2f56:	3a 01       	movw	r6, r20
    2f58:	49 01       	movw	r8, r18
    2f5a:	1f 8b       	std	Y+23, r17	; 0x17
    2f5c:	0e 8b       	std	Y+22, r16	; 0x16
    2f5e:	b7 01       	movw	r22, r14
    2f60:	ff 0c       	add	r15, r15
    2f62:	88 0b       	sbc	r24, r24
    2f64:	99 0b       	sbc	r25, r25
    2f66:	0e 94 3b 1c 	call	0x3876	; 0x3876 <__floatsisf>
    2f6a:	29 e2       	ldi	r18, 0x29	; 41
    2f6c:	3c e5       	ldi	r19, 0x5C	; 92
    2f6e:	4f e8       	ldi	r20, 0x8F	; 143
    2f70:	5c e3       	ldi	r21, 0x3C	; 60
    2f72:	0e 94 06 1d 	call	0x3a0c	; 0x3a0c <__mulsf3>
    2f76:	69 8b       	std	Y+17, r22	; 0x11
    2f78:	7a 8b       	std	Y+18, r23	; 0x12
    2f7a:	8b 8b       	std	Y+19, r24	; 0x13
    2f7c:	9c 8b       	std	Y+20, r25	; 0x14
    2f7e:	85 b3       	in	r24, 0x15	; 21
    2f80:	8d 7f       	andi	r24, 0xFD	; 253
    2f82:	85 bb       	out	0x15, r24	; 21
    2f84:	d5 01       	movw	r26, r10
    2f86:	51 96       	adiw	r26, 0x11	; 17
    2f88:	8c 91       	ld	r24, X
    2f8a:	b9 81       	ldd	r27, Y+1	; 0x01
    2f8c:	2b 2f       	mov	r18, r27
    2f8e:	30 e0       	ldi	r19, 0x00	; 0
    2f90:	28 1b       	sub	r18, r24
    2f92:	31 09       	sbc	r19, r1
    2f94:	f5 01       	movw	r30, r10
    2f96:	87 85       	ldd	r24, Z+15	; 0x0f
    2f98:	86 95       	lsr	r24
    2f9a:	86 95       	lsr	r24
    2f9c:	86 95       	lsr	r24
    2f9e:	90 89       	ldd	r25, Z+16	; 0x10
    2fa0:	89 9f       	mul	r24, r25
    2fa2:	c0 01       	movw	r24, r0
    2fa4:	11 24       	eor	r1, r1
    2fa6:	28 9f       	mul	r18, r24
    2fa8:	a0 01       	movw	r20, r0
    2faa:	29 9f       	mul	r18, r25
    2fac:	50 0d       	add	r21, r0
    2fae:	38 9f       	mul	r19, r24
    2fb0:	50 0d       	add	r21, r0
    2fb2:	11 24       	eor	r1, r1
    2fb4:	9a 01       	movw	r18, r20
    2fb6:	2c 5f       	subi	r18, 0xFC	; 252
    2fb8:	3f 4f       	sbci	r19, 0xFF	; 255
    2fba:	39 8f       	std	Y+25, r19	; 0x19
    2fbc:	28 8f       	std	Y+24, r18	; 0x18
    2fbe:	1d 8a       	std	Y+21, r1	; 0x15
    2fc0:	d5 01       	movw	r26, r10
    2fc2:	50 96       	adiw	r26, 0x10	; 16
    2fc4:	8c 91       	ld	r24, X
    2fc6:	bd 89       	ldd	r27, Y+21	; 0x15
    2fc8:	b8 17       	cp	r27, r24
    2fca:	08 f0       	brcs	.+2      	; 0x2fce <_ZN4UTFT10rotateCharEhiiii+0xb0>
    2fcc:	fb c0       	rjmp	.+502    	; 0x31c4 <_ZN4UTFT10rotateCharEhiiii+0x2a6>
    2fce:	41 2c       	mov	r4, r1
    2fd0:	51 2c       	mov	r5, r1
    2fd2:	f5 01       	movw	r30, r10
    2fd4:	87 85       	ldd	r24, Z+15	; 0x0f
    2fd6:	86 95       	lsr	r24
    2fd8:	86 95       	lsr	r24
    2fda:	86 95       	lsr	r24
    2fdc:	28 2f       	mov	r18, r24
    2fde:	30 e0       	ldi	r19, 0x00	; 0
    2fe0:	42 16       	cp	r4, r18
    2fe2:	53 06       	cpc	r5, r19
    2fe4:	0c f0       	brlt	.+2      	; 0x2fe8 <_ZN4UTFT10rotateCharEhiiii+0xca>
    2fe6:	e4 c0       	rjmp	.+456    	; 0x31b0 <_ZN4UTFT10rotateCharEhiiii+0x292>
    2fe8:	05 84       	ldd	r0, Z+13	; 0x0d
    2fea:	f6 85       	ldd	r31, Z+14	; 0x0e
    2fec:	e0 2d       	mov	r30, r0
    2fee:	88 8d       	ldd	r24, Y+24	; 0x18
    2ff0:	99 8d       	ldd	r25, Y+25	; 0x19
    2ff2:	84 0d       	add	r24, r4
    2ff4:	95 1d       	adc	r25, r5
    2ff6:	e8 0f       	add	r30, r24
    2ff8:	f9 1f       	adc	r31, r25
    2ffa:	24 90       	lpm	r2, Z
    2ffc:	31 2c       	mov	r3, r1
    2ffe:	3a 8e       	std	Y+26, r3	; 0x1a
    3000:	2b 8e       	std	Y+27, r2	; 0x1b
    3002:	fa 8d       	ldd	r31, Y+26	; 0x1a
    3004:	f8 30       	cpi	r31, 0x08	; 8
    3006:	08 f0       	brcs	.+2      	; 0x300a <_ZN4UTFT10rotateCharEhiiii+0xec>
    3008:	cf c0       	rjmp	.+414    	; 0x31a8 <_ZN4UTFT10rotateCharEhiiii+0x28a>
    300a:	2f 2e       	mov	r2, r31
    300c:	31 2c       	mov	r3, r1
    300e:	b2 01       	movw	r22, r4
    3010:	66 0f       	add	r22, r22
    3012:	77 1f       	adc	r23, r23
    3014:	66 0f       	add	r22, r22
    3016:	77 1f       	adc	r23, r23
    3018:	66 0f       	add	r22, r22
    301a:	77 1f       	adc	r23, r23
    301c:	62 0d       	add	r22, r2
    301e:	73 1d       	adc	r23, r3
    3020:	d5 01       	movw	r26, r10
    3022:	1f 96       	adiw	r26, 0x0f	; 15
    3024:	2c 91       	ld	r18, X
    3026:	ee 89       	ldd	r30, Y+22	; 0x16
    3028:	ff 89       	ldd	r31, Y+23	; 0x17
    302a:	2e 9f       	mul	r18, r30
    302c:	c0 01       	movw	r24, r0
    302e:	2f 9f       	mul	r18, r31
    3030:	90 0d       	add	r25, r0
    3032:	11 24       	eor	r1, r1
    3034:	68 0f       	add	r22, r24
    3036:	79 1f       	adc	r23, r25
    3038:	07 2e       	mov	r0, r23
    303a:	00 0c       	add	r0, r0
    303c:	88 0b       	sbc	r24, r24
    303e:	99 0b       	sbc	r25, r25
    3040:	0e 94 3b 1c 	call	0x3876	; 0x3876 <__floatsisf>
    3044:	69 83       	std	Y+1, r22	; 0x01
    3046:	7a 83       	std	Y+2, r23	; 0x02
    3048:	8b 83       	std	Y+3, r24	; 0x03
    304a:	9c 83       	std	Y+4, r25	; 0x04
    304c:	69 89       	ldd	r22, Y+17	; 0x11
    304e:	7a 89       	ldd	r23, Y+18	; 0x12
    3050:	8b 89       	ldd	r24, Y+19	; 0x13
    3052:	9c 89       	ldd	r25, Y+20	; 0x14
    3054:	0e 94 fe 1b 	call	0x37fc	; 0x37fc <cos>
    3058:	6d 83       	std	Y+5, r22	; 0x05
    305a:	7e 83       	std	Y+6, r23	; 0x06
    305c:	8f 83       	std	Y+7, r24	; 0x07
    305e:	98 87       	std	Y+8, r25	; 0x08
    3060:	9b 01       	movw	r18, r22
    3062:	ac 01       	movw	r20, r24
    3064:	69 81       	ldd	r22, Y+1	; 0x01
    3066:	7a 81       	ldd	r23, Y+2	; 0x02
    3068:	8b 81       	ldd	r24, Y+3	; 0x03
    306a:	9c 81       	ldd	r25, Y+4	; 0x04
    306c:	0e 94 06 1d 	call	0x3a0c	; 0x3a0c <__mulsf3>
    3070:	6b 01       	movw	r12, r22
    3072:	7c 01       	movw	r14, r24
    3074:	fd 89       	ldd	r31, Y+21	; 0x15
    3076:	6f 2f       	mov	r22, r31
    3078:	70 e0       	ldi	r23, 0x00	; 0
    307a:	80 e0       	ldi	r24, 0x00	; 0
    307c:	90 e0       	ldi	r25, 0x00	; 0
    307e:	0e 94 3b 1c 	call	0x3876	; 0x3876 <__floatsisf>
    3082:	69 87       	std	Y+9, r22	; 0x09
    3084:	7a 87       	std	Y+10, r23	; 0x0a
    3086:	8b 87       	std	Y+11, r24	; 0x0b
    3088:	9c 87       	std	Y+12, r25	; 0x0c
    308a:	69 89       	ldd	r22, Y+17	; 0x11
    308c:	7a 89       	ldd	r23, Y+18	; 0x12
    308e:	8b 89       	ldd	r24, Y+19	; 0x13
    3090:	9c 89       	ldd	r25, Y+20	; 0x14
    3092:	0e 94 73 1d 	call	0x3ae6	; 0x3ae6 <sin>
    3096:	6d 87       	std	Y+13, r22	; 0x0d
    3098:	7e 87       	std	Y+14, r23	; 0x0e
    309a:	8f 87       	std	Y+15, r24	; 0x0f
    309c:	98 8b       	std	Y+16, r25	; 0x10
    309e:	9b 01       	movw	r18, r22
    30a0:	ac 01       	movw	r20, r24
    30a2:	69 85       	ldd	r22, Y+9	; 0x09
    30a4:	7a 85       	ldd	r23, Y+10	; 0x0a
    30a6:	8b 85       	ldd	r24, Y+11	; 0x0b
    30a8:	9c 85       	ldd	r25, Y+12	; 0x0c
    30aa:	0e 94 06 1d 	call	0x3a0c	; 0x3a0c <__mulsf3>
    30ae:	9b 01       	movw	r18, r22
    30b0:	ac 01       	movw	r20, r24
    30b2:	c7 01       	movw	r24, r14
    30b4:	b6 01       	movw	r22, r12
    30b6:	0e 94 91 1b 	call	0x3722	; 0x3722 <__subsf3>
    30ba:	6b 01       	movw	r12, r22
    30bc:	7c 01       	movw	r14, r24
    30be:	b3 01       	movw	r22, r6
    30c0:	07 2c       	mov	r0, r7
    30c2:	00 0c       	add	r0, r0
    30c4:	88 0b       	sbc	r24, r24
    30c6:	99 0b       	sbc	r25, r25
    30c8:	0e 94 3b 1c 	call	0x3876	; 0x3876 <__floatsisf>
    30cc:	a7 01       	movw	r20, r14
    30ce:	96 01       	movw	r18, r12
    30d0:	0e 94 92 1b 	call	0x3724	; 0x3724 <__addsf3>
    30d4:	0e 94 03 1c 	call	0x3806	; 0x3806 <__fixsfsi>
    30d8:	6b 01       	movw	r12, r22
    30da:	7c 01       	movw	r14, r24
    30dc:	29 85       	ldd	r18, Y+9	; 0x09
    30de:	3a 85       	ldd	r19, Y+10	; 0x0a
    30e0:	4b 85       	ldd	r20, Y+11	; 0x0b
    30e2:	5c 85       	ldd	r21, Y+12	; 0x0c
    30e4:	6d 81       	ldd	r22, Y+5	; 0x05
    30e6:	7e 81       	ldd	r23, Y+6	; 0x06
    30e8:	8f 81       	ldd	r24, Y+7	; 0x07
    30ea:	98 85       	ldd	r25, Y+8	; 0x08
    30ec:	0e 94 06 1d 	call	0x3a0c	; 0x3a0c <__mulsf3>
    30f0:	6d 83       	std	Y+5, r22	; 0x05
    30f2:	7e 83       	std	Y+6, r23	; 0x06
    30f4:	8f 83       	std	Y+7, r24	; 0x07
    30f6:	98 87       	std	Y+8, r25	; 0x08
    30f8:	2d 85       	ldd	r18, Y+13	; 0x0d
    30fa:	3e 85       	ldd	r19, Y+14	; 0x0e
    30fc:	4f 85       	ldd	r20, Y+15	; 0x0f
    30fe:	58 89       	ldd	r21, Y+16	; 0x10
    3100:	69 81       	ldd	r22, Y+1	; 0x01
    3102:	7a 81       	ldd	r23, Y+2	; 0x02
    3104:	8b 81       	ldd	r24, Y+3	; 0x03
    3106:	9c 81       	ldd	r25, Y+4	; 0x04
    3108:	0e 94 06 1d 	call	0x3a0c	; 0x3a0c <__mulsf3>
    310c:	9b 01       	movw	r18, r22
    310e:	ac 01       	movw	r20, r24
    3110:	6d 81       	ldd	r22, Y+5	; 0x05
    3112:	7e 81       	ldd	r23, Y+6	; 0x06
    3114:	8f 81       	ldd	r24, Y+7	; 0x07
    3116:	98 85       	ldd	r25, Y+8	; 0x08
    3118:	0e 94 92 1b 	call	0x3724	; 0x3724 <__addsf3>
    311c:	69 83       	std	Y+1, r22	; 0x01
    311e:	7a 83       	std	Y+2, r23	; 0x02
    3120:	8b 83       	std	Y+3, r24	; 0x03
    3122:	9c 83       	std	Y+4, r25	; 0x04
    3124:	b4 01       	movw	r22, r8
    3126:	09 2c       	mov	r0, r9
    3128:	00 0c       	add	r0, r0
    312a:	88 0b       	sbc	r24, r24
    312c:	99 0b       	sbc	r25, r25
    312e:	0e 94 3b 1c 	call	0x3876	; 0x3876 <__floatsisf>
    3132:	29 81       	ldd	r18, Y+1	; 0x01
    3134:	3a 81       	ldd	r19, Y+2	; 0x02
    3136:	4b 81       	ldd	r20, Y+3	; 0x03
    3138:	5c 81       	ldd	r21, Y+4	; 0x04
    313a:	0e 94 92 1b 	call	0x3724	; 0x3724 <__addsf3>
    313e:	0e 94 03 1c 	call	0x3806	; 0x3806 <__fixsfsi>
    3142:	8b 01       	movw	r16, r22
    3144:	0f 5f       	subi	r16, 0xFF	; 255
    3146:	1f 4f       	sbci	r17, 0xFF	; 255
    3148:	96 01       	movw	r18, r12
    314a:	2f 5f       	subi	r18, 0xFF	; 255
    314c:	3f 4f       	sbci	r19, 0xFF	; 255
    314e:	ab 01       	movw	r20, r22
    3150:	b6 01       	movw	r22, r12
    3152:	c5 01       	movw	r24, r10
    3154:	0e 94 f6 12 	call	0x25ec	; 0x25ec <_ZN4UTFT5setXYEjjjj>
    3158:	27 e0       	ldi	r18, 0x07	; 7
    315a:	30 e0       	ldi	r19, 0x00	; 0
    315c:	22 19       	sub	r18, r2
    315e:	33 09       	sbc	r19, r3
    3160:	4b 8d       	ldd	r20, Y+27	; 0x1b
    3162:	84 2f       	mov	r24, r20
    3164:	90 e0       	ldi	r25, 0x00	; 0
    3166:	02 c0       	rjmp	.+4      	; 0x316c <_ZN4UTFT10rotateCharEhiiii+0x24e>
    3168:	95 95       	asr	r25
    316a:	87 95       	ror	r24
    316c:	2a 95       	dec	r18
    316e:	e2 f7       	brpl	.-8      	; 0x3168 <_ZN4UTFT10rotateCharEhiiii+0x24a>
    3170:	80 ff       	sbrs	r24, 0
    3172:	0c c0       	rjmp	.+24     	; 0x318c <_ZN4UTFT10rotateCharEhiiii+0x26e>
    3174:	d5 01       	movw	r26, r10
    3176:	6c 91       	ld	r22, X
    3178:	70 e0       	ldi	r23, 0x00	; 0
    317a:	76 2f       	mov	r23, r22
    317c:	66 27       	eor	r22, r22
    317e:	11 96       	adiw	r26, 0x01	; 1
    3180:	8c 91       	ld	r24, X
    3182:	68 2b       	or	r22, r24
    3184:	c5 01       	movw	r24, r10
    3186:	0e 94 1f 14 	call	0x283e	; 0x283e <_ZN4UTFT8setPixelEj>
    318a:	0a c0       	rjmp	.+20     	; 0x31a0 <_ZN4UTFT10rotateCharEhiiii+0x282>
    318c:	f5 01       	movw	r30, r10
    318e:	62 81       	ldd	r22, Z+2	; 0x02
    3190:	70 e0       	ldi	r23, 0x00	; 0
    3192:	76 2f       	mov	r23, r22
    3194:	66 27       	eor	r22, r22
    3196:	83 81       	ldd	r24, Z+3	; 0x03
    3198:	68 2b       	or	r22, r24
    319a:	c5 01       	movw	r24, r10
    319c:	0e 94 1f 14 	call	0x283e	; 0x283e <_ZN4UTFT8setPixelEj>
    31a0:	fa 8d       	ldd	r31, Y+26	; 0x1a
    31a2:	ff 5f       	subi	r31, 0xFF	; 255
    31a4:	fa 8f       	std	Y+26, r31	; 0x1a
    31a6:	2d cf       	rjmp	.-422    	; 0x3002 <_ZN4UTFT10rotateCharEhiiii+0xe4>
    31a8:	2f ef       	ldi	r18, 0xFF	; 255
    31aa:	42 1a       	sub	r4, r18
    31ac:	52 0a       	sbc	r5, r18
    31ae:	11 cf       	rjmp	.-478    	; 0x2fd2 <_ZN4UTFT10rotateCharEhiiii+0xb4>
    31b0:	48 8d       	ldd	r20, Y+24	; 0x18
    31b2:	59 8d       	ldd	r21, Y+25	; 0x19
    31b4:	48 0f       	add	r20, r24
    31b6:	51 1d       	adc	r21, r1
    31b8:	59 8f       	std	Y+25, r21	; 0x19
    31ba:	48 8f       	std	Y+24, r20	; 0x18
    31bc:	5d 89       	ldd	r21, Y+21	; 0x15
    31be:	5f 5f       	subi	r21, 0xFF	; 255
    31c0:	5d 8b       	std	Y+21, r21	; 0x15
    31c2:	fe ce       	rjmp	.-516    	; 0x2fc0 <_ZN4UTFT10rotateCharEhiiii+0xa2>
    31c4:	85 b3       	in	r24, 0x15	; 21
    31c6:	82 60       	ori	r24, 0x02	; 2
    31c8:	85 bb       	out	0x15, r24	; 21
    31ca:	6b 96       	adiw	r28, 0x1b	; 27
    31cc:	0f b6       	in	r0, 0x3f	; 63
    31ce:	f8 94       	cli
    31d0:	de bf       	out	0x3e, r29	; 62
    31d2:	0f be       	out	0x3f, r0	; 63
    31d4:	cd bf       	out	0x3d, r28	; 61
    31d6:	df 91       	pop	r29
    31d8:	cf 91       	pop	r28
    31da:	1f 91       	pop	r17
    31dc:	0f 91       	pop	r16
    31de:	ff 90       	pop	r15
    31e0:	ef 90       	pop	r14
    31e2:	df 90       	pop	r13
    31e4:	cf 90       	pop	r12
    31e6:	bf 90       	pop	r11
    31e8:	af 90       	pop	r10
    31ea:	9f 90       	pop	r9
    31ec:	8f 90       	pop	r8
    31ee:	7f 90       	pop	r7
    31f0:	6f 90       	pop	r6
    31f2:	5f 90       	pop	r5
    31f4:	4f 90       	pop	r4
    31f6:	3f 90       	pop	r3
    31f8:	2f 90       	pop	r2
    31fa:	08 95       	ret

000031fc <_ZN4UTFT5printEPKciii>:
    31fc:	2f 92       	push	r2
    31fe:	3f 92       	push	r3
    3200:	4f 92       	push	r4
    3202:	5f 92       	push	r5
    3204:	6f 92       	push	r6
    3206:	7f 92       	push	r7
    3208:	8f 92       	push	r8
    320a:	9f 92       	push	r9
    320c:	af 92       	push	r10
    320e:	bf 92       	push	r11
    3210:	cf 92       	push	r12
    3212:	df 92       	push	r13
    3214:	ef 92       	push	r14
    3216:	ff 92       	push	r15
    3218:	0f 93       	push	r16
    321a:	1f 93       	push	r17
    321c:	cf 93       	push	r28
    321e:	df 93       	push	r29
    3220:	ec 01       	movw	r28, r24
    3222:	fb 01       	movw	r30, r22
    3224:	5a 01       	movw	r10, r20
    3226:	29 01       	movw	r4, r18
    3228:	68 01       	movw	r12, r16
    322a:	db 01       	movw	r26, r22
    322c:	0d 90       	ld	r0, X+
    322e:	00 20       	and	r0, r0
    3230:	e9 f7       	brne	.-6      	; 0x322c <_ZN4UTFT5printEPKciii+0x30>
    3232:	11 97       	sbiw	r26, 0x01	; 1
    3234:	a6 1b       	sub	r26, r22
    3236:	b7 0b       	sbc	r27, r23
    3238:	4d 01       	movw	r8, r26
    323a:	8c 81       	ldd	r24, Y+4	; 0x04
    323c:	81 11       	cpse	r24, r1
    323e:	3e c0       	rjmp	.+124    	; 0x32bc <_ZN4UTFT5printEPKciii+0xc0>
    3240:	4f 30       	cpi	r20, 0x0F	; 15
    3242:	57 42       	sbci	r21, 0x27	; 39
    3244:	81 f4       	brne	.+32     	; 0x3266 <_ZN4UTFT5printEPKciii+0x6a>
    3246:	4d 81       	ldd	r20, Y+5	; 0x05
    3248:	5e 81       	ldd	r21, Y+6	; 0x06
    324a:	6f 81       	ldd	r22, Y+7	; 0x07
    324c:	78 85       	ldd	r23, Y+8	; 0x08
    324e:	2f 85       	ldd	r18, Y+15	; 0x0f
    3250:	2a 9f       	mul	r18, r26
    3252:	c0 01       	movw	r24, r0
    3254:	2b 9f       	mul	r18, r27
    3256:	90 0d       	add	r25, r0
    3258:	11 24       	eor	r1, r1
    325a:	48 1b       	sub	r20, r24
    325c:	59 0b       	sbc	r21, r25
    325e:	5a 01       	movw	r10, r20
    3260:	1f ef       	ldi	r17, 0xFF	; 255
    3262:	a1 1a       	sub	r10, r17
    3264:	b1 0a       	sbc	r11, r17
    3266:	2e e0       	ldi	r18, 0x0E	; 14
    3268:	a2 16       	cp	r10, r18
    326a:	27 e2       	ldi	r18, 0x27	; 39
    326c:	b2 06       	cpc	r11, r18
    326e:	09 f0       	breq	.+2      	; 0x3272 <_ZN4UTFT5printEPKciii+0x76>
    3270:	61 c0       	rjmp	.+194    	; 0x3334 <_ZN4UTFT5printEPKciii+0x138>
    3272:	4d 81       	ldd	r20, Y+5	; 0x05
    3274:	5e 81       	ldd	r21, Y+6	; 0x06
    3276:	6f 81       	ldd	r22, Y+7	; 0x07
    3278:	78 85       	ldd	r23, Y+8	; 0x08
    327a:	4f 5f       	subi	r20, 0xFF	; 255
    327c:	5f 4f       	sbci	r21, 0xFF	; 255
    327e:	6f 4f       	sbci	r22, 0xFF	; 255
    3280:	7f 4f       	sbci	r23, 0xFF	; 255
    3282:	2f 85       	ldd	r18, Y+15	; 0x0f
    3284:	2a 9f       	mul	r18, r26
    3286:	c0 01       	movw	r24, r0
    3288:	2b 9f       	mul	r18, r27
    328a:	90 0d       	add	r25, r0
    328c:	11 24       	eor	r1, r1
    328e:	09 2e       	mov	r0, r25
    3290:	00 0c       	add	r0, r0
    3292:	aa 0b       	sbc	r26, r26
    3294:	bb 0b       	sbc	r27, r27
    3296:	8a 01       	movw	r16, r20
    3298:	9b 01       	movw	r18, r22
    329a:	08 1b       	sub	r16, r24
    329c:	19 0b       	sbc	r17, r25
    329e:	2a 0b       	sbc	r18, r26
    32a0:	3b 0b       	sbc	r19, r27
    32a2:	b9 01       	movw	r22, r18
    32a4:	a8 01       	movw	r20, r16
    32a6:	22 f4       	brpl	.+8      	; 0x32b0 <_ZN4UTFT5printEPKciii+0xb4>
    32a8:	4f 5f       	subi	r20, 0xFF	; 255
    32aa:	5f 4f       	sbci	r21, 0xFF	; 255
    32ac:	6f 4f       	sbci	r22, 0xFF	; 255
    32ae:	7f 4f       	sbci	r23, 0xFF	; 255
    32b0:	75 95       	asr	r23
    32b2:	67 95       	ror	r22
    32b4:	57 95       	ror	r21
    32b6:	47 95       	ror	r20
    32b8:	5a 01       	movw	r10, r20
    32ba:	3c c0       	rjmp	.+120    	; 0x3334 <_ZN4UTFT5printEPKciii+0x138>
    32bc:	4f 30       	cpi	r20, 0x0F	; 15
    32be:	57 42       	sbci	r21, 0x27	; 39
    32c0:	81 f4       	brne	.+32     	; 0x32e2 <_ZN4UTFT5printEPKciii+0xe6>
    32c2:	49 85       	ldd	r20, Y+9	; 0x09
    32c4:	5a 85       	ldd	r21, Y+10	; 0x0a
    32c6:	6b 85       	ldd	r22, Y+11	; 0x0b
    32c8:	7c 85       	ldd	r23, Y+12	; 0x0c
    32ca:	2f 85       	ldd	r18, Y+15	; 0x0f
    32cc:	2a 9f       	mul	r18, r26
    32ce:	c0 01       	movw	r24, r0
    32d0:	2b 9f       	mul	r18, r27
    32d2:	90 0d       	add	r25, r0
    32d4:	11 24       	eor	r1, r1
    32d6:	48 1b       	sub	r20, r24
    32d8:	59 0b       	sbc	r21, r25
    32da:	5a 01       	movw	r10, r20
    32dc:	2f ef       	ldi	r18, 0xFF	; 255
    32de:	a2 1a       	sub	r10, r18
    32e0:	b2 0a       	sbc	r11, r18
    32e2:	3e e0       	ldi	r19, 0x0E	; 14
    32e4:	a3 16       	cp	r10, r19
    32e6:	37 e2       	ldi	r19, 0x27	; 39
    32e8:	b3 06       	cpc	r11, r19
    32ea:	21 f5       	brne	.+72     	; 0x3334 <_ZN4UTFT5printEPKciii+0x138>
    32ec:	49 85       	ldd	r20, Y+9	; 0x09
    32ee:	5a 85       	ldd	r21, Y+10	; 0x0a
    32f0:	6b 85       	ldd	r22, Y+11	; 0x0b
    32f2:	7c 85       	ldd	r23, Y+12	; 0x0c
    32f4:	4f 5f       	subi	r20, 0xFF	; 255
    32f6:	5f 4f       	sbci	r21, 0xFF	; 255
    32f8:	6f 4f       	sbci	r22, 0xFF	; 255
    32fa:	7f 4f       	sbci	r23, 0xFF	; 255
    32fc:	2f 85       	ldd	r18, Y+15	; 0x0f
    32fe:	2a 9f       	mul	r18, r26
    3300:	c0 01       	movw	r24, r0
    3302:	2b 9f       	mul	r18, r27
    3304:	90 0d       	add	r25, r0
    3306:	11 24       	eor	r1, r1
    3308:	09 2e       	mov	r0, r25
    330a:	00 0c       	add	r0, r0
    330c:	aa 0b       	sbc	r26, r26
    330e:	bb 0b       	sbc	r27, r27
    3310:	8a 01       	movw	r16, r20
    3312:	9b 01       	movw	r18, r22
    3314:	08 1b       	sub	r16, r24
    3316:	19 0b       	sbc	r17, r25
    3318:	2a 0b       	sbc	r18, r26
    331a:	3b 0b       	sbc	r19, r27
    331c:	b9 01       	movw	r22, r18
    331e:	a8 01       	movw	r20, r16
    3320:	22 f4       	brpl	.+8      	; 0x332a <_ZN4UTFT5printEPKciii+0x12e>
    3322:	4f 5f       	subi	r20, 0xFF	; 255
    3324:	5f 4f       	sbci	r21, 0xFF	; 255
    3326:	6f 4f       	sbci	r22, 0xFF	; 255
    3328:	7f 4f       	sbci	r23, 0xFF	; 255
    332a:	75 95       	asr	r23
    332c:	67 95       	ror	r22
    332e:	57 95       	ror	r21
    3330:	47 95       	ror	r20
    3332:	5a 01       	movw	r10, r20
    3334:	61 2c       	mov	r6, r1
    3336:	71 2c       	mov	r7, r1
    3338:	68 14       	cp	r6, r8
    333a:	79 04       	cpc	r7, r9
    333c:	3c f5       	brge	.+78     	; 0x338c <_ZN4UTFT5printEPKciii+0x190>
    333e:	c1 14       	cp	r12, r1
    3340:	d1 04       	cpc	r13, r1
    3342:	99 f4       	brne	.+38     	; 0x336a <_ZN4UTFT5printEPKciii+0x16e>
    3344:	8f 85       	ldd	r24, Y+15	; 0x0f
    3346:	86 9d       	mul	r24, r6
    3348:	a0 01       	movw	r20, r0
    334a:	87 9d       	mul	r24, r7
    334c:	50 0d       	add	r21, r0
    334e:	11 24       	eor	r1, r1
    3350:	4a 0d       	add	r20, r10
    3352:	5b 1d       	adc	r21, r11
    3354:	1f 01       	movw	r2, r30
    3356:	1f ef       	ldi	r17, 0xFF	; 255
    3358:	21 1a       	sub	r2, r17
    335a:	31 0a       	sbc	r3, r17
    335c:	60 81       	ld	r22, Z
    335e:	92 01       	movw	r18, r4
    3360:	ce 01       	movw	r24, r28
    3362:	0e 94 96 16 	call	0x2d2c	; 0x2d2c <_ZN4UTFT9printCharEhii>
    3366:	f1 01       	movw	r30, r2
    3368:	0d c0       	rjmp	.+26     	; 0x3384 <_ZN4UTFT5printEPKciii+0x188>
    336a:	1f 01       	movw	r2, r30
    336c:	2f ef       	ldi	r18, 0xFF	; 255
    336e:	22 1a       	sub	r2, r18
    3370:	32 0a       	sbc	r3, r18
    3372:	60 81       	ld	r22, Z
    3374:	76 01       	movw	r14, r12
    3376:	83 01       	movw	r16, r6
    3378:	92 01       	movw	r18, r4
    337a:	a5 01       	movw	r20, r10
    337c:	ce 01       	movw	r24, r28
    337e:	0e 94 8f 17 	call	0x2f1e	; 0x2f1e <_ZN4UTFT10rotateCharEhiiii>
    3382:	f1 01       	movw	r30, r2
    3384:	3f ef       	ldi	r19, 0xFF	; 255
    3386:	63 1a       	sub	r6, r19
    3388:	73 0a       	sbc	r7, r19
    338a:	d6 cf       	rjmp	.-84     	; 0x3338 <_ZN4UTFT5printEPKciii+0x13c>
    338c:	df 91       	pop	r29
    338e:	cf 91       	pop	r28
    3390:	1f 91       	pop	r17
    3392:	0f 91       	pop	r16
    3394:	ff 90       	pop	r15
    3396:	ef 90       	pop	r14
    3398:	df 90       	pop	r13
    339a:	cf 90       	pop	r12
    339c:	bf 90       	pop	r11
    339e:	af 90       	pop	r10
    33a0:	9f 90       	pop	r9
    33a2:	8f 90       	pop	r8
    33a4:	7f 90       	pop	r7
    33a6:	6f 90       	pop	r6
    33a8:	5f 90       	pop	r5
    33aa:	4f 90       	pop	r4
    33ac:	3f 90       	pop	r3
    33ae:	2f 90       	pop	r2
    33b0:	08 95       	ret

000033b2 <_ZN4UTFT15printWithMarginEPKciii>:
    33b2:	7f 92       	push	r7
    33b4:	8f 92       	push	r8
    33b6:	9f 92       	push	r9
    33b8:	af 92       	push	r10
    33ba:	bf 92       	push	r11
    33bc:	cf 92       	push	r12
    33be:	df 92       	push	r13
    33c0:	ef 92       	push	r14
    33c2:	ff 92       	push	r15
    33c4:	0f 93       	push	r16
    33c6:	1f 93       	push	r17
    33c8:	cf 93       	push	r28
    33ca:	df 93       	push	r29
    33cc:	7c 01       	movw	r14, r24
    33ce:	fb 01       	movw	r30, r22
    33d0:	5a 01       	movw	r10, r20
    33d2:	db 01       	movw	r26, r22
    33d4:	0d 90       	ld	r0, X+
    33d6:	00 20       	and	r0, r0
    33d8:	e9 f7       	brne	.-6      	; 0x33d4 <_ZN4UTFT15printWithMarginEPKciii+0x22>
    33da:	11 97       	sbiw	r26, 0x01	; 1
    33dc:	a6 1b       	sub	r26, r22
    33de:	b7 0b       	sbc	r27, r23
    33e0:	4d 01       	movw	r8, r26
    33e2:	ec 01       	movw	r28, r24
    33e4:	8c 81       	ldd	r24, Y+4	; 0x04
    33e6:	81 11       	cpse	r24, r1
    33e8:	42 c0       	rjmp	.+132    	; 0x346e <_ZN4UTFT15printWithMarginEPKciii+0xbc>
    33ea:	4f 30       	cpi	r20, 0x0F	; 15
    33ec:	57 42       	sbci	r21, 0x27	; 39
    33ee:	89 f4       	brne	.+34     	; 0x3412 <_ZN4UTFT15printWithMarginEPKciii+0x60>
    33f0:	e7 01       	movw	r28, r14
    33f2:	4d 81       	ldd	r20, Y+5	; 0x05
    33f4:	5e 81       	ldd	r21, Y+6	; 0x06
    33f6:	6f 81       	ldd	r22, Y+7	; 0x07
    33f8:	78 85       	ldd	r23, Y+8	; 0x08
    33fa:	3f 85       	ldd	r19, Y+15	; 0x0f
    33fc:	3a 9f       	mul	r19, r26
    33fe:	c0 01       	movw	r24, r0
    3400:	3b 9f       	mul	r19, r27
    3402:	90 0d       	add	r25, r0
    3404:	11 24       	eor	r1, r1
    3406:	48 1b       	sub	r20, r24
    3408:	59 0b       	sbc	r21, r25
    340a:	5a 01       	movw	r10, r20
    340c:	df ef       	ldi	r29, 0xFF	; 255
    340e:	ad 1a       	sub	r10, r29
    3410:	bd 0a       	sbc	r11, r29
    3412:	8e e0       	ldi	r24, 0x0E	; 14
    3414:	a8 16       	cp	r10, r24
    3416:	87 e2       	ldi	r24, 0x27	; 39
    3418:	b8 06       	cpc	r11, r24
    341a:	09 f0       	breq	.+2      	; 0x341e <_ZN4UTFT15printWithMarginEPKciii+0x6c>
    341c:	68 c0       	rjmp	.+208    	; 0x34ee <_ZN4UTFT15printWithMarginEPKciii+0x13c>
    341e:	e7 01       	movw	r28, r14
    3420:	4d 81       	ldd	r20, Y+5	; 0x05
    3422:	5e 81       	ldd	r21, Y+6	; 0x06
    3424:	6f 81       	ldd	r22, Y+7	; 0x07
    3426:	78 85       	ldd	r23, Y+8	; 0x08
    3428:	4f 5f       	subi	r20, 0xFF	; 255
    342a:	5f 4f       	sbci	r21, 0xFF	; 255
    342c:	6f 4f       	sbci	r22, 0xFF	; 255
    342e:	7f 4f       	sbci	r23, 0xFF	; 255
    3430:	3f 85       	ldd	r19, Y+15	; 0x0f
    3432:	3a 9f       	mul	r19, r26
    3434:	c0 01       	movw	r24, r0
    3436:	3b 9f       	mul	r19, r27
    3438:	90 0d       	add	r25, r0
    343a:	11 24       	eor	r1, r1
    343c:	09 2e       	mov	r0, r25
    343e:	00 0c       	add	r0, r0
    3440:	aa 0b       	sbc	r26, r26
    3442:	bb 0b       	sbc	r27, r27
    3444:	5a 01       	movw	r10, r20
    3446:	6b 01       	movw	r12, r22
    3448:	a8 1a       	sub	r10, r24
    344a:	b9 0a       	sbc	r11, r25
    344c:	ca 0a       	sbc	r12, r26
    344e:	db 0a       	sbc	r13, r27
    3450:	b6 01       	movw	r22, r12
    3452:	a5 01       	movw	r20, r10
    3454:	22 f4       	brpl	.+8      	; 0x345e <_ZN4UTFT15printWithMarginEPKciii+0xac>
    3456:	4f 5f       	subi	r20, 0xFF	; 255
    3458:	5f 4f       	sbci	r21, 0xFF	; 255
    345a:	6f 4f       	sbci	r22, 0xFF	; 255
    345c:	7f 4f       	sbci	r23, 0xFF	; 255
    345e:	db 01       	movw	r26, r22
    3460:	ca 01       	movw	r24, r20
    3462:	b5 95       	asr	r27
    3464:	a7 95       	ror	r26
    3466:	97 95       	ror	r25
    3468:	87 95       	ror	r24
    346a:	5c 01       	movw	r10, r24
    346c:	40 c0       	rjmp	.+128    	; 0x34ee <_ZN4UTFT15printWithMarginEPKciii+0x13c>
    346e:	4f 30       	cpi	r20, 0x0F	; 15
    3470:	57 42       	sbci	r21, 0x27	; 39
    3472:	89 f4       	brne	.+34     	; 0x3496 <_ZN4UTFT15printWithMarginEPKciii+0xe4>
    3474:	e7 01       	movw	r28, r14
    3476:	49 85       	ldd	r20, Y+9	; 0x09
    3478:	5a 85       	ldd	r21, Y+10	; 0x0a
    347a:	6b 85       	ldd	r22, Y+11	; 0x0b
    347c:	7c 85       	ldd	r23, Y+12	; 0x0c
    347e:	3f 85       	ldd	r19, Y+15	; 0x0f
    3480:	3a 9f       	mul	r19, r26
    3482:	c0 01       	movw	r24, r0
    3484:	3b 9f       	mul	r19, r27
    3486:	90 0d       	add	r25, r0
    3488:	11 24       	eor	r1, r1
    348a:	48 1b       	sub	r20, r24
    348c:	59 0b       	sbc	r21, r25
    348e:	5a 01       	movw	r10, r20
    3490:	df ef       	ldi	r29, 0xFF	; 255
    3492:	ad 1a       	sub	r10, r29
    3494:	bd 0a       	sbc	r11, r29
    3496:	8e e0       	ldi	r24, 0x0E	; 14
    3498:	a8 16       	cp	r10, r24
    349a:	87 e2       	ldi	r24, 0x27	; 39
    349c:	b8 06       	cpc	r11, r24
    349e:	39 f5       	brne	.+78     	; 0x34ee <_ZN4UTFT15printWithMarginEPKciii+0x13c>
    34a0:	e7 01       	movw	r28, r14
    34a2:	49 85       	ldd	r20, Y+9	; 0x09
    34a4:	5a 85       	ldd	r21, Y+10	; 0x0a
    34a6:	6b 85       	ldd	r22, Y+11	; 0x0b
    34a8:	7c 85       	ldd	r23, Y+12	; 0x0c
    34aa:	4f 5f       	subi	r20, 0xFF	; 255
    34ac:	5f 4f       	sbci	r21, 0xFF	; 255
    34ae:	6f 4f       	sbci	r22, 0xFF	; 255
    34b0:	7f 4f       	sbci	r23, 0xFF	; 255
    34b2:	3f 85       	ldd	r19, Y+15	; 0x0f
    34b4:	3a 9f       	mul	r19, r26
    34b6:	c0 01       	movw	r24, r0
    34b8:	3b 9f       	mul	r19, r27
    34ba:	90 0d       	add	r25, r0
    34bc:	11 24       	eor	r1, r1
    34be:	09 2e       	mov	r0, r25
    34c0:	00 0c       	add	r0, r0
    34c2:	aa 0b       	sbc	r26, r26
    34c4:	bb 0b       	sbc	r27, r27
    34c6:	5a 01       	movw	r10, r20
    34c8:	6b 01       	movw	r12, r22
    34ca:	a8 1a       	sub	r10, r24
    34cc:	b9 0a       	sbc	r11, r25
    34ce:	ca 0a       	sbc	r12, r26
    34d0:	db 0a       	sbc	r13, r27
    34d2:	b6 01       	movw	r22, r12
    34d4:	a5 01       	movw	r20, r10
    34d6:	22 f4       	brpl	.+8      	; 0x34e0 <_ZN4UTFT15printWithMarginEPKciii+0x12e>
    34d8:	4f 5f       	subi	r20, 0xFF	; 255
    34da:	5f 4f       	sbci	r21, 0xFF	; 255
    34dc:	6f 4f       	sbci	r22, 0xFF	; 255
    34de:	7f 4f       	sbci	r23, 0xFF	; 255
    34e0:	db 01       	movw	r26, r22
    34e2:	ca 01       	movw	r24, r20
    34e4:	b5 95       	asr	r27
    34e6:	a7 95       	ror	r26
    34e8:	97 95       	ror	r25
    34ea:	87 95       	ror	r24
    34ec:	5c 01       	movw	r10, r24
    34ee:	72 2e       	mov	r7, r18
    34f0:	c0 e0       	ldi	r28, 0x00	; 0
    34f2:	d0 e0       	ldi	r29, 0x00	; 0
    34f4:	c8 15       	cp	r28, r8
    34f6:	d9 05       	cpc	r29, r9
    34f8:	44 f5       	brge	.+80     	; 0x354a <_ZN4UTFT15printWithMarginEPKciii+0x198>
    34fa:	20 97       	sbiw	r28, 0x00	; 0
    34fc:	59 f0       	breq	.+22     	; 0x3514 <_ZN4UTFT15printWithMarginEPKciii+0x162>
    34fe:	ce 01       	movw	r24, r28
    3500:	b8 01       	movw	r22, r16
    3502:	0e 94 c4 1d 	call	0x3b88	; 0x3b88 <__divmodhi4>
    3506:	89 2b       	or	r24, r25
    3508:	29 f4       	brne	.+10     	; 0x3514 <_ZN4UTFT15printWithMarginEPKciii+0x162>
    350a:	0f 2e       	mov	r0, r31
    350c:	fc e0       	ldi	r31, 0x0C	; 12
    350e:	cf 2e       	mov	r12, r31
    3510:	f0 2d       	mov	r31, r0
    3512:	7c 0c       	add	r7, r12
    3514:	27 2d       	mov	r18, r7
    3516:	30 e0       	ldi	r19, 0x00	; 0
    3518:	ce 01       	movw	r24, r28
    351a:	b8 01       	movw	r22, r16
    351c:	0e 94 c4 1d 	call	0x3b88	; 0x3b88 <__divmodhi4>
    3520:	d7 01       	movw	r26, r14
    3522:	1f 96       	adiw	r26, 0x0f	; 15
    3524:	6c 91       	ld	r22, X
    3526:	68 9f       	mul	r22, r24
    3528:	a0 01       	movw	r20, r0
    352a:	69 9f       	mul	r22, r25
    352c:	50 0d       	add	r21, r0
    352e:	11 24       	eor	r1, r1
    3530:	4a 0d       	add	r20, r10
    3532:	5b 1d       	adc	r21, r11
    3534:	6f 01       	movw	r12, r30
    3536:	bf ef       	ldi	r27, 0xFF	; 255
    3538:	cb 1a       	sub	r12, r27
    353a:	db 0a       	sbc	r13, r27
    353c:	60 81       	ld	r22, Z
    353e:	c7 01       	movw	r24, r14
    3540:	0e 94 96 16 	call	0x2d2c	; 0x2d2c <_ZN4UTFT9printCharEhii>
    3544:	21 96       	adiw	r28, 0x01	; 1
    3546:	f6 01       	movw	r30, r12
    3548:	d5 cf       	rjmp	.-86     	; 0x34f4 <_ZN4UTFT15printWithMarginEPKciii+0x142>
    354a:	df 91       	pop	r29
    354c:	cf 91       	pop	r28
    354e:	1f 91       	pop	r17
    3550:	0f 91       	pop	r16
    3552:	ff 90       	pop	r15
    3554:	ef 90       	pop	r14
    3556:	df 90       	pop	r13
    3558:	cf 90       	pop	r12
    355a:	bf 90       	pop	r11
    355c:	af 90       	pop	r10
    355e:	9f 90       	pop	r9
    3560:	8f 90       	pop	r8
    3562:	7f 90       	pop	r7
    3564:	08 95       	ret

00003566 <_ZN4UTFT9printNumIEhiiic>:
    3566:	af 92       	push	r10
    3568:	bf 92       	push	r11
    356a:	cf 92       	push	r12
    356c:	df 92       	push	r13
    356e:	ef 92       	push	r14
    3570:	0f 93       	push	r16
    3572:	1f 93       	push	r17
    3574:	cf 93       	push	r28
    3576:	df 93       	push	r29
    3578:	cd b7       	in	r28, 0x3d	; 61
    357a:	de b7       	in	r29, 0x3e	; 62
    357c:	28 97       	sbiw	r28, 0x08	; 8
    357e:	0f b6       	in	r0, 0x3f	; 63
    3580:	f8 94       	cli
    3582:	de bf       	out	0x3e, r29	; 62
    3584:	0f be       	out	0x3f, r0	; 63
    3586:	cd bf       	out	0x3d, r28	; 61
    3588:	6c 01       	movw	r12, r24
    358a:	5a 01       	movw	r10, r20
    358c:	61 11       	cpse	r22, r1
    358e:	29 c0       	rjmp	.+82     	; 0x35e2 <_ZN4UTFT9printNumIEhiiic+0x7c>
    3590:	01 15       	cp	r16, r1
    3592:	11 05       	cpc	r17, r1
    3594:	11 f1       	breq	.+68     	; 0x35da <_ZN4UTFT9printNumIEhiiic+0x74>
    3596:	80 e0       	ldi	r24, 0x00	; 0
    3598:	90 e0       	ldi	r25, 0x00	; 0
    359a:	a8 01       	movw	r20, r16
    359c:	41 50       	subi	r20, 0x01	; 1
    359e:	51 09       	sbc	r21, r1
    35a0:	84 17       	cp	r24, r20
    35a2:	95 07       	cpc	r25, r21
    35a4:	4c f4       	brge	.+18     	; 0x35b8 <_ZN4UTFT9printNumIEhiiic+0x52>
    35a6:	e5 e0       	ldi	r30, 0x05	; 5
    35a8:	f0 e0       	ldi	r31, 0x00	; 0
    35aa:	ec 0f       	add	r30, r28
    35ac:	fd 1f       	adc	r31, r29
    35ae:	e8 0f       	add	r30, r24
    35b0:	f9 1f       	adc	r31, r25
    35b2:	e0 82       	st	Z, r14
    35b4:	01 96       	adiw	r24, 0x01	; 1
    35b6:	f1 cf       	rjmp	.-30     	; 0x359a <_ZN4UTFT9printNumIEhiiic+0x34>
    35b8:	e5 e0       	ldi	r30, 0x05	; 5
    35ba:	f0 e0       	ldi	r31, 0x00	; 0
    35bc:	ec 0f       	add	r30, r28
    35be:	fd 1f       	adc	r31, r29
    35c0:	e8 0f       	add	r30, r24
    35c2:	f9 1f       	adc	r31, r25
    35c4:	40 e3       	ldi	r20, 0x30	; 48
    35c6:	40 83       	st	Z, r20
    35c8:	01 96       	adiw	r24, 0x01	; 1
    35ca:	e5 e0       	ldi	r30, 0x05	; 5
    35cc:	f0 e0       	ldi	r31, 0x00	; 0
    35ce:	ec 0f       	add	r30, r28
    35d0:	fd 1f       	adc	r31, r29
    35d2:	e8 0f       	add	r30, r24
    35d4:	f9 1f       	adc	r31, r25
    35d6:	10 82       	st	Z, r1
    35d8:	70 c0       	rjmp	.+224    	; 0x36ba <_ZN4UTFT9printNumIEhiiic+0x154>
    35da:	80 e3       	ldi	r24, 0x30	; 48
    35dc:	8d 83       	std	Y+5, r24	; 0x05
    35de:	1e 82       	std	Y+6, r1	; 0x06
    35e0:	6c c0       	rjmp	.+216    	; 0x36ba <_ZN4UTFT9printNumIEhiiic+0x154>
    35e2:	e0 e0       	ldi	r30, 0x00	; 0
    35e4:	f0 e0       	ldi	r31, 0x00	; 0
    35e6:	66 23       	and	r22, r22
    35e8:	11 f1       	breq	.+68     	; 0x362e <_ZN4UTFT9printNumIEhiiic+0xc8>
    35ea:	4d ec       	ldi	r20, 0xCD	; 205
    35ec:	64 9f       	mul	r22, r20
    35ee:	41 2d       	mov	r20, r1
    35f0:	11 24       	eor	r1, r1
    35f2:	46 95       	lsr	r20
    35f4:	46 95       	lsr	r20
    35f6:	46 95       	lsr	r20
    35f8:	44 0f       	add	r20, r20
    35fa:	84 2f       	mov	r24, r20
    35fc:	88 0f       	add	r24, r24
    35fe:	88 0f       	add	r24, r24
    3600:	48 0f       	add	r20, r24
    3602:	86 2f       	mov	r24, r22
    3604:	84 1b       	sub	r24, r20
    3606:	48 2f       	mov	r20, r24
    3608:	a1 e0       	ldi	r26, 0x01	; 1
    360a:	b0 e0       	ldi	r27, 0x00	; 0
    360c:	ac 0f       	add	r26, r28
    360e:	bd 1f       	adc	r27, r29
    3610:	ae 0f       	add	r26, r30
    3612:	bf 1f       	adc	r27, r31
    3614:	80 e3       	ldi	r24, 0x30	; 48
    3616:	84 0f       	add	r24, r20
    3618:	8c 93       	st	X, r24
    361a:	31 96       	adiw	r30, 0x01	; 1
    361c:	86 2f       	mov	r24, r22
    361e:	90 e0       	ldi	r25, 0x00	; 0
    3620:	84 1b       	sub	r24, r20
    3622:	91 09       	sbc	r25, r1
    3624:	6a e0       	ldi	r22, 0x0A	; 10
    3626:	70 e0       	ldi	r23, 0x00	; 0
    3628:	0e 94 c4 1d 	call	0x3b88	; 0x3b88 <__divmodhi4>
    362c:	dc cf       	rjmp	.-72     	; 0x35e6 <_ZN4UTFT9printNumIEhiiic+0x80>
    362e:	a1 e0       	ldi	r26, 0x01	; 1
    3630:	b0 e0       	ldi	r27, 0x00	; 0
    3632:	ac 0f       	add	r26, r28
    3634:	bd 1f       	adc	r27, r29
    3636:	ae 0f       	add	r26, r30
    3638:	bf 1f       	adc	r27, r31
    363a:	1c 92       	st	X, r1
    363c:	e0 17       	cp	r30, r16
    363e:	f1 07       	cpc	r31, r17
    3640:	ac f4       	brge	.+42     	; 0x366c <_ZN4UTFT9printNumIEhiiic+0x106>
    3642:	80 e0       	ldi	r24, 0x00	; 0
    3644:	90 e0       	ldi	r25, 0x00	; 0
    3646:	40 e0       	ldi	r20, 0x00	; 0
    3648:	50 e0       	ldi	r21, 0x00	; 0
    364a:	b8 01       	movw	r22, r16
    364c:	6e 1b       	sub	r22, r30
    364e:	7f 0b       	sbc	r23, r31
    3650:	86 17       	cp	r24, r22
    3652:	97 07       	cpc	r25, r23
    3654:	6c f4       	brge	.+26     	; 0x3670 <_ZN4UTFT9printNumIEhiiic+0x10a>
    3656:	a5 e0       	ldi	r26, 0x05	; 5
    3658:	b0 e0       	ldi	r27, 0x00	; 0
    365a:	ac 0f       	add	r26, r28
    365c:	bd 1f       	adc	r27, r29
    365e:	a8 0f       	add	r26, r24
    3660:	b9 1f       	adc	r27, r25
    3662:	ec 92       	st	X, r14
    3664:	4f 5f       	subi	r20, 0xFF	; 255
    3666:	5f 4f       	sbci	r21, 0xFF	; 255
    3668:	01 96       	adiw	r24, 0x01	; 1
    366a:	ef cf       	rjmp	.-34     	; 0x364a <_ZN4UTFT9printNumIEhiiic+0xe4>
    366c:	40 e0       	ldi	r20, 0x00	; 0
    366e:	50 e0       	ldi	r21, 0x00	; 0
    3670:	cf 01       	movw	r24, r30
    3672:	01 97       	sbiw	r24, 0x01	; 1
    3674:	99 23       	and	r25, r25
    3676:	c4 f0       	brlt	.+48     	; 0x36a8 <_ZN4UTFT9printNumIEhiiic+0x142>
    3678:	ba 01       	movw	r22, r20
    367a:	68 0f       	add	r22, r24
    367c:	79 1f       	adc	r23, r25
    367e:	df 01       	movw	r26, r30
    3680:	a8 1b       	sub	r26, r24
    3682:	b9 0b       	sbc	r27, r25
    3684:	11 97       	sbiw	r26, 0x01	; 1
    3686:	01 e0       	ldi	r16, 0x01	; 1
    3688:	10 e0       	ldi	r17, 0x00	; 0
    368a:	0c 0f       	add	r16, r28
    368c:	1d 1f       	adc	r17, r29
    368e:	a0 0f       	add	r26, r16
    3690:	b1 1f       	adc	r27, r17
    3692:	ec 90       	ld	r14, X
    3694:	a5 e0       	ldi	r26, 0x05	; 5
    3696:	b0 e0       	ldi	r27, 0x00	; 0
    3698:	ac 0f       	add	r26, r28
    369a:	bd 1f       	adc	r27, r29
    369c:	6a 0f       	add	r22, r26
    369e:	7b 1f       	adc	r23, r27
    36a0:	db 01       	movw	r26, r22
    36a2:	ec 92       	st	X, r14
    36a4:	01 97       	sbiw	r24, 0x01	; 1
    36a6:	e6 cf       	rjmp	.-52     	; 0x3674 <_ZN4UTFT9printNumIEhiiic+0x10e>
    36a8:	e4 0f       	add	r30, r20
    36aa:	f5 1f       	adc	r31, r21
    36ac:	05 e0       	ldi	r16, 0x05	; 5
    36ae:	10 e0       	ldi	r17, 0x00	; 0
    36b0:	0c 0f       	add	r16, r28
    36b2:	1d 1f       	adc	r17, r29
    36b4:	e0 0f       	add	r30, r16
    36b6:	f1 1f       	adc	r31, r17
    36b8:	10 82       	st	Z, r1
    36ba:	00 e0       	ldi	r16, 0x00	; 0
    36bc:	10 e0       	ldi	r17, 0x00	; 0
    36be:	a5 01       	movw	r20, r10
    36c0:	be 01       	movw	r22, r28
    36c2:	6b 5f       	subi	r22, 0xFB	; 251
    36c4:	7f 4f       	sbci	r23, 0xFF	; 255
    36c6:	c6 01       	movw	r24, r12
    36c8:	0e 94 fe 18 	call	0x31fc	; 0x31fc <_ZN4UTFT5printEPKciii>
    36cc:	28 96       	adiw	r28, 0x08	; 8
    36ce:	0f b6       	in	r0, 0x3f	; 63
    36d0:	f8 94       	cli
    36d2:	de bf       	out	0x3e, r29	; 62
    36d4:	0f be       	out	0x3f, r0	; 63
    36d6:	cd bf       	out	0x3d, r28	; 61
    36d8:	df 91       	pop	r29
    36da:	cf 91       	pop	r28
    36dc:	1f 91       	pop	r17
    36de:	0f 91       	pop	r16
    36e0:	ef 90       	pop	r14
    36e2:	df 90       	pop	r13
    36e4:	cf 90       	pop	r12
    36e6:	bf 90       	pop	r11
    36e8:	af 90       	pop	r10
    36ea:	08 95       	ret

000036ec <_ZN4UTFT7setFontEPKh>:

void UTFT::setFont(const uint8_t* font)
{
    36ec:	dc 01       	movw	r26, r24
	cfont.font=font;
    36ee:	1e 96       	adiw	r26, 0x0e	; 14
    36f0:	7c 93       	st	X, r23
    36f2:	6e 93       	st	-X, r22
    36f4:	1d 97       	sbiw	r26, 0x0d	; 13
	cfont.x_size=fontbyte(0);
    36f6:	fb 01       	movw	r30, r22
    36f8:	84 91       	lpm	r24, Z
    36fa:	1f 96       	adiw	r26, 0x0f	; 15
    36fc:	8c 93       	st	X, r24
    36fe:	1f 97       	sbiw	r26, 0x0f	; 15
	cfont.y_size=fontbyte(1);
    3700:	31 96       	adiw	r30, 0x01	; 1
    3702:	e4 91       	lpm	r30, Z
    3704:	50 96       	adiw	r26, 0x10	; 16
    3706:	ec 93       	st	X, r30
    3708:	50 97       	sbiw	r26, 0x10	; 16
	cfont.offset=fontbyte(2);
    370a:	fb 01       	movw	r30, r22
    370c:	32 96       	adiw	r30, 0x02	; 2
    370e:	e4 91       	lpm	r30, Z
    3710:	51 96       	adiw	r26, 0x11	; 17
    3712:	ec 93       	st	X, r30
    3714:	51 97       	sbiw	r26, 0x11	; 17
	cfont.numchars=fontbyte(3);
    3716:	fb 01       	movw	r30, r22
    3718:	33 96       	adiw	r30, 0x03	; 3
    371a:	64 91       	lpm	r22, Z
    371c:	52 96       	adiw	r26, 0x12	; 18
    371e:	6c 93       	st	X, r22
    3720:	08 95       	ret

00003722 <__subsf3>:
    3722:	50 58       	subi	r21, 0x80	; 128

00003724 <__addsf3>:
    3724:	bb 27       	eor	r27, r27
    3726:	aa 27       	eor	r26, r26
    3728:	0e 94 a9 1b 	call	0x3752	; 0x3752 <__addsf3x>
    372c:	0c 94 b8 1c 	jmp	0x3970	; 0x3970 <__fp_round>
    3730:	0e 94 7f 1c 	call	0x38fe	; 0x38fe <__fp_pscA>
    3734:	38 f0       	brcs	.+14     	; 0x3744 <__addsf3+0x20>
    3736:	0e 94 86 1c 	call	0x390c	; 0x390c <__fp_pscB>
    373a:	20 f0       	brcs	.+8      	; 0x3744 <__addsf3+0x20>
    373c:	39 f4       	brne	.+14     	; 0x374c <__addsf3+0x28>
    373e:	9f 3f       	cpi	r25, 0xFF	; 255
    3740:	19 f4       	brne	.+6      	; 0x3748 <__addsf3+0x24>
    3742:	26 f4       	brtc	.+8      	; 0x374c <__addsf3+0x28>
    3744:	0c 94 7c 1c 	jmp	0x38f8	; 0x38f8 <__fp_nan>
    3748:	0e f4       	brtc	.+2      	; 0x374c <__addsf3+0x28>
    374a:	e0 95       	com	r30
    374c:	e7 fb       	bst	r30, 7
    374e:	0c 94 76 1c 	jmp	0x38ec	; 0x38ec <__fp_inf>

00003752 <__addsf3x>:
    3752:	e9 2f       	mov	r30, r25
    3754:	0e 94 dd 1c 	call	0x39ba	; 0x39ba <__fp_split3>
    3758:	58 f3       	brcs	.-42     	; 0x3730 <__addsf3+0xc>
    375a:	ba 17       	cp	r27, r26
    375c:	62 07       	cpc	r22, r18
    375e:	73 07       	cpc	r23, r19
    3760:	84 07       	cpc	r24, r20
    3762:	95 07       	cpc	r25, r21
    3764:	20 f0       	brcs	.+8      	; 0x376e <__addsf3x+0x1c>
    3766:	79 f4       	brne	.+30     	; 0x3786 <__addsf3x+0x34>
    3768:	a6 f5       	brtc	.+104    	; 0x37d2 <__addsf3x+0x80>
    376a:	0c 94 ff 1c 	jmp	0x39fe	; 0x39fe <__fp_zero>
    376e:	0e f4       	brtc	.+2      	; 0x3772 <__addsf3x+0x20>
    3770:	e0 95       	com	r30
    3772:	0b 2e       	mov	r0, r27
    3774:	ba 2f       	mov	r27, r26
    3776:	a0 2d       	mov	r26, r0
    3778:	0b 01       	movw	r0, r22
    377a:	b9 01       	movw	r22, r18
    377c:	90 01       	movw	r18, r0
    377e:	0c 01       	movw	r0, r24
    3780:	ca 01       	movw	r24, r20
    3782:	a0 01       	movw	r20, r0
    3784:	11 24       	eor	r1, r1
    3786:	ff 27       	eor	r31, r31
    3788:	59 1b       	sub	r21, r25
    378a:	99 f0       	breq	.+38     	; 0x37b2 <__addsf3x+0x60>
    378c:	59 3f       	cpi	r21, 0xF9	; 249
    378e:	50 f4       	brcc	.+20     	; 0x37a4 <__addsf3x+0x52>
    3790:	50 3e       	cpi	r21, 0xE0	; 224
    3792:	68 f1       	brcs	.+90     	; 0x37ee <__addsf3x+0x9c>
    3794:	1a 16       	cp	r1, r26
    3796:	f0 40       	sbci	r31, 0x00	; 0
    3798:	a2 2f       	mov	r26, r18
    379a:	23 2f       	mov	r18, r19
    379c:	34 2f       	mov	r19, r20
    379e:	44 27       	eor	r20, r20
    37a0:	58 5f       	subi	r21, 0xF8	; 248
    37a2:	f3 cf       	rjmp	.-26     	; 0x378a <__addsf3x+0x38>
    37a4:	46 95       	lsr	r20
    37a6:	37 95       	ror	r19
    37a8:	27 95       	ror	r18
    37aa:	a7 95       	ror	r26
    37ac:	f0 40       	sbci	r31, 0x00	; 0
    37ae:	53 95       	inc	r21
    37b0:	c9 f7       	brne	.-14     	; 0x37a4 <__addsf3x+0x52>
    37b2:	7e f4       	brtc	.+30     	; 0x37d2 <__addsf3x+0x80>
    37b4:	1f 16       	cp	r1, r31
    37b6:	ba 0b       	sbc	r27, r26
    37b8:	62 0b       	sbc	r22, r18
    37ba:	73 0b       	sbc	r23, r19
    37bc:	84 0b       	sbc	r24, r20
    37be:	ba f0       	brmi	.+46     	; 0x37ee <__addsf3x+0x9c>
    37c0:	91 50       	subi	r25, 0x01	; 1
    37c2:	a1 f0       	breq	.+40     	; 0x37ec <__addsf3x+0x9a>
    37c4:	ff 0f       	add	r31, r31
    37c6:	bb 1f       	adc	r27, r27
    37c8:	66 1f       	adc	r22, r22
    37ca:	77 1f       	adc	r23, r23
    37cc:	88 1f       	adc	r24, r24
    37ce:	c2 f7       	brpl	.-16     	; 0x37c0 <__addsf3x+0x6e>
    37d0:	0e c0       	rjmp	.+28     	; 0x37ee <__addsf3x+0x9c>
    37d2:	ba 0f       	add	r27, r26
    37d4:	62 1f       	adc	r22, r18
    37d6:	73 1f       	adc	r23, r19
    37d8:	84 1f       	adc	r24, r20
    37da:	48 f4       	brcc	.+18     	; 0x37ee <__addsf3x+0x9c>
    37dc:	87 95       	ror	r24
    37de:	77 95       	ror	r23
    37e0:	67 95       	ror	r22
    37e2:	b7 95       	ror	r27
    37e4:	f7 95       	ror	r31
    37e6:	9e 3f       	cpi	r25, 0xFE	; 254
    37e8:	08 f0       	brcs	.+2      	; 0x37ec <__addsf3x+0x9a>
    37ea:	b0 cf       	rjmp	.-160    	; 0x374c <__addsf3+0x28>
    37ec:	93 95       	inc	r25
    37ee:	88 0f       	add	r24, r24
    37f0:	08 f0       	brcs	.+2      	; 0x37f4 <__addsf3x+0xa2>
    37f2:	99 27       	eor	r25, r25
    37f4:	ee 0f       	add	r30, r30
    37f6:	97 95       	ror	r25
    37f8:	87 95       	ror	r24
    37fa:	08 95       	ret

000037fc <cos>:
    37fc:	0e 94 8f 1c 	call	0x391e	; 0x391e <__fp_rempio2>
    3800:	e3 95       	inc	r30
    3802:	0c 94 c9 1c 	jmp	0x3992	; 0x3992 <__fp_sinus>

00003806 <__fixsfsi>:
    3806:	0e 94 0a 1c 	call	0x3814	; 0x3814 <__fixunssfsi>
    380a:	68 94       	set
    380c:	b1 11       	cpse	r27, r1
    380e:	0c 94 00 1d 	jmp	0x3a00	; 0x3a00 <__fp_szero>
    3812:	08 95       	ret

00003814 <__fixunssfsi>:
    3814:	0e 94 e5 1c 	call	0x39ca	; 0x39ca <__fp_splitA>
    3818:	88 f0       	brcs	.+34     	; 0x383c <__fixunssfsi+0x28>
    381a:	9f 57       	subi	r25, 0x7F	; 127
    381c:	98 f0       	brcs	.+38     	; 0x3844 <__fixunssfsi+0x30>
    381e:	b9 2f       	mov	r27, r25
    3820:	99 27       	eor	r25, r25
    3822:	b7 51       	subi	r27, 0x17	; 23
    3824:	b0 f0       	brcs	.+44     	; 0x3852 <__fixunssfsi+0x3e>
    3826:	e1 f0       	breq	.+56     	; 0x3860 <__fixunssfsi+0x4c>
    3828:	66 0f       	add	r22, r22
    382a:	77 1f       	adc	r23, r23
    382c:	88 1f       	adc	r24, r24
    382e:	99 1f       	adc	r25, r25
    3830:	1a f0       	brmi	.+6      	; 0x3838 <__fixunssfsi+0x24>
    3832:	ba 95       	dec	r27
    3834:	c9 f7       	brne	.-14     	; 0x3828 <__fixunssfsi+0x14>
    3836:	14 c0       	rjmp	.+40     	; 0x3860 <__fixunssfsi+0x4c>
    3838:	b1 30       	cpi	r27, 0x01	; 1
    383a:	91 f0       	breq	.+36     	; 0x3860 <__fixunssfsi+0x4c>
    383c:	0e 94 ff 1c 	call	0x39fe	; 0x39fe <__fp_zero>
    3840:	b1 e0       	ldi	r27, 0x01	; 1
    3842:	08 95       	ret
    3844:	0c 94 ff 1c 	jmp	0x39fe	; 0x39fe <__fp_zero>
    3848:	67 2f       	mov	r22, r23
    384a:	78 2f       	mov	r23, r24
    384c:	88 27       	eor	r24, r24
    384e:	b8 5f       	subi	r27, 0xF8	; 248
    3850:	39 f0       	breq	.+14     	; 0x3860 <__fixunssfsi+0x4c>
    3852:	b9 3f       	cpi	r27, 0xF9	; 249
    3854:	cc f3       	brlt	.-14     	; 0x3848 <__fixunssfsi+0x34>
    3856:	86 95       	lsr	r24
    3858:	77 95       	ror	r23
    385a:	67 95       	ror	r22
    385c:	b3 95       	inc	r27
    385e:	d9 f7       	brne	.-10     	; 0x3856 <__fixunssfsi+0x42>
    3860:	3e f4       	brtc	.+14     	; 0x3870 <__fixunssfsi+0x5c>
    3862:	90 95       	com	r25
    3864:	80 95       	com	r24
    3866:	70 95       	com	r23
    3868:	61 95       	neg	r22
    386a:	7f 4f       	sbci	r23, 0xFF	; 255
    386c:	8f 4f       	sbci	r24, 0xFF	; 255
    386e:	9f 4f       	sbci	r25, 0xFF	; 255
    3870:	08 95       	ret

00003872 <__floatunsisf>:
    3872:	e8 94       	clt
    3874:	09 c0       	rjmp	.+18     	; 0x3888 <__floatsisf+0x12>

00003876 <__floatsisf>:
    3876:	97 fb       	bst	r25, 7
    3878:	3e f4       	brtc	.+14     	; 0x3888 <__floatsisf+0x12>
    387a:	90 95       	com	r25
    387c:	80 95       	com	r24
    387e:	70 95       	com	r23
    3880:	61 95       	neg	r22
    3882:	7f 4f       	sbci	r23, 0xFF	; 255
    3884:	8f 4f       	sbci	r24, 0xFF	; 255
    3886:	9f 4f       	sbci	r25, 0xFF	; 255
    3888:	99 23       	and	r25, r25
    388a:	a9 f0       	breq	.+42     	; 0x38b6 <__floatsisf+0x40>
    388c:	f9 2f       	mov	r31, r25
    388e:	96 e9       	ldi	r25, 0x96	; 150
    3890:	bb 27       	eor	r27, r27
    3892:	93 95       	inc	r25
    3894:	f6 95       	lsr	r31
    3896:	87 95       	ror	r24
    3898:	77 95       	ror	r23
    389a:	67 95       	ror	r22
    389c:	b7 95       	ror	r27
    389e:	f1 11       	cpse	r31, r1
    38a0:	f8 cf       	rjmp	.-16     	; 0x3892 <__floatsisf+0x1c>
    38a2:	fa f4       	brpl	.+62     	; 0x38e2 <__floatsisf+0x6c>
    38a4:	bb 0f       	add	r27, r27
    38a6:	11 f4       	brne	.+4      	; 0x38ac <__floatsisf+0x36>
    38a8:	60 ff       	sbrs	r22, 0
    38aa:	1b c0       	rjmp	.+54     	; 0x38e2 <__floatsisf+0x6c>
    38ac:	6f 5f       	subi	r22, 0xFF	; 255
    38ae:	7f 4f       	sbci	r23, 0xFF	; 255
    38b0:	8f 4f       	sbci	r24, 0xFF	; 255
    38b2:	9f 4f       	sbci	r25, 0xFF	; 255
    38b4:	16 c0       	rjmp	.+44     	; 0x38e2 <__floatsisf+0x6c>
    38b6:	88 23       	and	r24, r24
    38b8:	11 f0       	breq	.+4      	; 0x38be <__floatsisf+0x48>
    38ba:	96 e9       	ldi	r25, 0x96	; 150
    38bc:	11 c0       	rjmp	.+34     	; 0x38e0 <__floatsisf+0x6a>
    38be:	77 23       	and	r23, r23
    38c0:	21 f0       	breq	.+8      	; 0x38ca <__floatsisf+0x54>
    38c2:	9e e8       	ldi	r25, 0x8E	; 142
    38c4:	87 2f       	mov	r24, r23
    38c6:	76 2f       	mov	r23, r22
    38c8:	05 c0       	rjmp	.+10     	; 0x38d4 <__floatsisf+0x5e>
    38ca:	66 23       	and	r22, r22
    38cc:	71 f0       	breq	.+28     	; 0x38ea <__floatsisf+0x74>
    38ce:	96 e8       	ldi	r25, 0x86	; 134
    38d0:	86 2f       	mov	r24, r22
    38d2:	70 e0       	ldi	r23, 0x00	; 0
    38d4:	60 e0       	ldi	r22, 0x00	; 0
    38d6:	2a f0       	brmi	.+10     	; 0x38e2 <__floatsisf+0x6c>
    38d8:	9a 95       	dec	r25
    38da:	66 0f       	add	r22, r22
    38dc:	77 1f       	adc	r23, r23
    38de:	88 1f       	adc	r24, r24
    38e0:	da f7       	brpl	.-10     	; 0x38d8 <__floatsisf+0x62>
    38e2:	88 0f       	add	r24, r24
    38e4:	96 95       	lsr	r25
    38e6:	87 95       	ror	r24
    38e8:	97 f9       	bld	r25, 7
    38ea:	08 95       	ret

000038ec <__fp_inf>:
    38ec:	97 f9       	bld	r25, 7
    38ee:	9f 67       	ori	r25, 0x7F	; 127
    38f0:	80 e8       	ldi	r24, 0x80	; 128
    38f2:	70 e0       	ldi	r23, 0x00	; 0
    38f4:	60 e0       	ldi	r22, 0x00	; 0
    38f6:	08 95       	ret

000038f8 <__fp_nan>:
    38f8:	9f ef       	ldi	r25, 0xFF	; 255
    38fa:	80 ec       	ldi	r24, 0xC0	; 192
    38fc:	08 95       	ret

000038fe <__fp_pscA>:
    38fe:	00 24       	eor	r0, r0
    3900:	0a 94       	dec	r0
    3902:	16 16       	cp	r1, r22
    3904:	17 06       	cpc	r1, r23
    3906:	18 06       	cpc	r1, r24
    3908:	09 06       	cpc	r0, r25
    390a:	08 95       	ret

0000390c <__fp_pscB>:
    390c:	00 24       	eor	r0, r0
    390e:	0a 94       	dec	r0
    3910:	12 16       	cp	r1, r18
    3912:	13 06       	cpc	r1, r19
    3914:	14 06       	cpc	r1, r20
    3916:	05 06       	cpc	r0, r21
    3918:	08 95       	ret
    391a:	0c 94 7c 1c 	jmp	0x38f8	; 0x38f8 <__fp_nan>

0000391e <__fp_rempio2>:
    391e:	0e 94 e5 1c 	call	0x39ca	; 0x39ca <__fp_splitA>
    3922:	d8 f3       	brcs	.-10     	; 0x391a <__fp_pscB+0xe>
    3924:	e8 94       	clt
    3926:	e0 e0       	ldi	r30, 0x00	; 0
    3928:	bb 27       	eor	r27, r27
    392a:	9f 57       	subi	r25, 0x7F	; 127
    392c:	f0 f0       	brcs	.+60     	; 0x396a <__fp_rempio2+0x4c>
    392e:	2a ed       	ldi	r18, 0xDA	; 218
    3930:	3f e0       	ldi	r19, 0x0F	; 15
    3932:	49 ec       	ldi	r20, 0xC9	; 201
    3934:	06 c0       	rjmp	.+12     	; 0x3942 <__fp_rempio2+0x24>
    3936:	ee 0f       	add	r30, r30
    3938:	bb 0f       	add	r27, r27
    393a:	66 1f       	adc	r22, r22
    393c:	77 1f       	adc	r23, r23
    393e:	88 1f       	adc	r24, r24
    3940:	28 f0       	brcs	.+10     	; 0x394c <__fp_rempio2+0x2e>
    3942:	b2 3a       	cpi	r27, 0xA2	; 162
    3944:	62 07       	cpc	r22, r18
    3946:	73 07       	cpc	r23, r19
    3948:	84 07       	cpc	r24, r20
    394a:	28 f0       	brcs	.+10     	; 0x3956 <__fp_rempio2+0x38>
    394c:	b2 5a       	subi	r27, 0xA2	; 162
    394e:	62 0b       	sbc	r22, r18
    3950:	73 0b       	sbc	r23, r19
    3952:	84 0b       	sbc	r24, r20
    3954:	e3 95       	inc	r30
    3956:	9a 95       	dec	r25
    3958:	72 f7       	brpl	.-36     	; 0x3936 <__fp_rempio2+0x18>
    395a:	80 38       	cpi	r24, 0x80	; 128
    395c:	30 f4       	brcc	.+12     	; 0x396a <__fp_rempio2+0x4c>
    395e:	9a 95       	dec	r25
    3960:	bb 0f       	add	r27, r27
    3962:	66 1f       	adc	r22, r22
    3964:	77 1f       	adc	r23, r23
    3966:	88 1f       	adc	r24, r24
    3968:	d2 f7       	brpl	.-12     	; 0x395e <__fp_rempio2+0x40>
    396a:	90 48       	sbci	r25, 0x80	; 128
    396c:	0c 94 7d 1d 	jmp	0x3afa	; 0x3afa <__fp_mpack_finite>

00003970 <__fp_round>:
    3970:	09 2e       	mov	r0, r25
    3972:	03 94       	inc	r0
    3974:	00 0c       	add	r0, r0
    3976:	11 f4       	brne	.+4      	; 0x397c <__fp_round+0xc>
    3978:	88 23       	and	r24, r24
    397a:	52 f0       	brmi	.+20     	; 0x3990 <__fp_round+0x20>
    397c:	bb 0f       	add	r27, r27
    397e:	40 f4       	brcc	.+16     	; 0x3990 <__fp_round+0x20>
    3980:	bf 2b       	or	r27, r31
    3982:	11 f4       	brne	.+4      	; 0x3988 <__fp_round+0x18>
    3984:	60 ff       	sbrs	r22, 0
    3986:	04 c0       	rjmp	.+8      	; 0x3990 <__fp_round+0x20>
    3988:	6f 5f       	subi	r22, 0xFF	; 255
    398a:	7f 4f       	sbci	r23, 0xFF	; 255
    398c:	8f 4f       	sbci	r24, 0xFF	; 255
    398e:	9f 4f       	sbci	r25, 0xFF	; 255
    3990:	08 95       	ret

00003992 <__fp_sinus>:
    3992:	ef 93       	push	r30
    3994:	e0 ff       	sbrs	r30, 0
    3996:	07 c0       	rjmp	.+14     	; 0x39a6 <__fp_sinus+0x14>
    3998:	a2 ea       	ldi	r26, 0xA2	; 162
    399a:	2a ed       	ldi	r18, 0xDA	; 218
    399c:	3f e0       	ldi	r19, 0x0F	; 15
    399e:	49 ec       	ldi	r20, 0xC9	; 201
    39a0:	5f eb       	ldi	r21, 0xBF	; 191
    39a2:	0e 94 a9 1b 	call	0x3752	; 0x3752 <__addsf3x>
    39a6:	0e 94 b8 1c 	call	0x3970	; 0x3970 <__fp_round>
    39aa:	0f 90       	pop	r0
    39ac:	03 94       	inc	r0
    39ae:	01 fc       	sbrc	r0, 1
    39b0:	90 58       	subi	r25, 0x80	; 128
    39b2:	e4 e5       	ldi	r30, 0x54	; 84
    39b4:	f0 e0       	ldi	r31, 0x00	; 0
    39b6:	0c 94 89 1d 	jmp	0x3b12	; 0x3b12 <__fp_powsodd>

000039ba <__fp_split3>:
    39ba:	57 fd       	sbrc	r21, 7
    39bc:	90 58       	subi	r25, 0x80	; 128
    39be:	44 0f       	add	r20, r20
    39c0:	55 1f       	adc	r21, r21
    39c2:	59 f0       	breq	.+22     	; 0x39da <__fp_splitA+0x10>
    39c4:	5f 3f       	cpi	r21, 0xFF	; 255
    39c6:	71 f0       	breq	.+28     	; 0x39e4 <__fp_splitA+0x1a>
    39c8:	47 95       	ror	r20

000039ca <__fp_splitA>:
    39ca:	88 0f       	add	r24, r24
    39cc:	97 fb       	bst	r25, 7
    39ce:	99 1f       	adc	r25, r25
    39d0:	61 f0       	breq	.+24     	; 0x39ea <__fp_splitA+0x20>
    39d2:	9f 3f       	cpi	r25, 0xFF	; 255
    39d4:	79 f0       	breq	.+30     	; 0x39f4 <__fp_splitA+0x2a>
    39d6:	87 95       	ror	r24
    39d8:	08 95       	ret
    39da:	12 16       	cp	r1, r18
    39dc:	13 06       	cpc	r1, r19
    39de:	14 06       	cpc	r1, r20
    39e0:	55 1f       	adc	r21, r21
    39e2:	f2 cf       	rjmp	.-28     	; 0x39c8 <__fp_split3+0xe>
    39e4:	46 95       	lsr	r20
    39e6:	f1 df       	rcall	.-30     	; 0x39ca <__fp_splitA>
    39e8:	08 c0       	rjmp	.+16     	; 0x39fa <__fp_splitA+0x30>
    39ea:	16 16       	cp	r1, r22
    39ec:	17 06       	cpc	r1, r23
    39ee:	18 06       	cpc	r1, r24
    39f0:	99 1f       	adc	r25, r25
    39f2:	f1 cf       	rjmp	.-30     	; 0x39d6 <__fp_splitA+0xc>
    39f4:	86 95       	lsr	r24
    39f6:	71 05       	cpc	r23, r1
    39f8:	61 05       	cpc	r22, r1
    39fa:	08 94       	sec
    39fc:	08 95       	ret

000039fe <__fp_zero>:
    39fe:	e8 94       	clt

00003a00 <__fp_szero>:
    3a00:	bb 27       	eor	r27, r27
    3a02:	66 27       	eor	r22, r22
    3a04:	77 27       	eor	r23, r23
    3a06:	cb 01       	movw	r24, r22
    3a08:	97 f9       	bld	r25, 7
    3a0a:	08 95       	ret

00003a0c <__mulsf3>:
    3a0c:	0e 94 19 1d 	call	0x3a32	; 0x3a32 <__mulsf3x>
    3a10:	0c 94 b8 1c 	jmp	0x3970	; 0x3970 <__fp_round>
    3a14:	0e 94 7f 1c 	call	0x38fe	; 0x38fe <__fp_pscA>
    3a18:	38 f0       	brcs	.+14     	; 0x3a28 <__mulsf3+0x1c>
    3a1a:	0e 94 86 1c 	call	0x390c	; 0x390c <__fp_pscB>
    3a1e:	20 f0       	brcs	.+8      	; 0x3a28 <__mulsf3+0x1c>
    3a20:	95 23       	and	r25, r21
    3a22:	11 f0       	breq	.+4      	; 0x3a28 <__mulsf3+0x1c>
    3a24:	0c 94 76 1c 	jmp	0x38ec	; 0x38ec <__fp_inf>
    3a28:	0c 94 7c 1c 	jmp	0x38f8	; 0x38f8 <__fp_nan>
    3a2c:	11 24       	eor	r1, r1
    3a2e:	0c 94 00 1d 	jmp	0x3a00	; 0x3a00 <__fp_szero>

00003a32 <__mulsf3x>:
    3a32:	0e 94 dd 1c 	call	0x39ba	; 0x39ba <__fp_split3>
    3a36:	70 f3       	brcs	.-36     	; 0x3a14 <__mulsf3+0x8>

00003a38 <__mulsf3_pse>:
    3a38:	95 9f       	mul	r25, r21
    3a3a:	c1 f3       	breq	.-16     	; 0x3a2c <__mulsf3+0x20>
    3a3c:	95 0f       	add	r25, r21
    3a3e:	50 e0       	ldi	r21, 0x00	; 0
    3a40:	55 1f       	adc	r21, r21
    3a42:	62 9f       	mul	r22, r18
    3a44:	f0 01       	movw	r30, r0
    3a46:	72 9f       	mul	r23, r18
    3a48:	bb 27       	eor	r27, r27
    3a4a:	f0 0d       	add	r31, r0
    3a4c:	b1 1d       	adc	r27, r1
    3a4e:	63 9f       	mul	r22, r19
    3a50:	aa 27       	eor	r26, r26
    3a52:	f0 0d       	add	r31, r0
    3a54:	b1 1d       	adc	r27, r1
    3a56:	aa 1f       	adc	r26, r26
    3a58:	64 9f       	mul	r22, r20
    3a5a:	66 27       	eor	r22, r22
    3a5c:	b0 0d       	add	r27, r0
    3a5e:	a1 1d       	adc	r26, r1
    3a60:	66 1f       	adc	r22, r22
    3a62:	82 9f       	mul	r24, r18
    3a64:	22 27       	eor	r18, r18
    3a66:	b0 0d       	add	r27, r0
    3a68:	a1 1d       	adc	r26, r1
    3a6a:	62 1f       	adc	r22, r18
    3a6c:	73 9f       	mul	r23, r19
    3a6e:	b0 0d       	add	r27, r0
    3a70:	a1 1d       	adc	r26, r1
    3a72:	62 1f       	adc	r22, r18
    3a74:	83 9f       	mul	r24, r19
    3a76:	a0 0d       	add	r26, r0
    3a78:	61 1d       	adc	r22, r1
    3a7a:	22 1f       	adc	r18, r18
    3a7c:	74 9f       	mul	r23, r20
    3a7e:	33 27       	eor	r19, r19
    3a80:	a0 0d       	add	r26, r0
    3a82:	61 1d       	adc	r22, r1
    3a84:	23 1f       	adc	r18, r19
    3a86:	84 9f       	mul	r24, r20
    3a88:	60 0d       	add	r22, r0
    3a8a:	21 1d       	adc	r18, r1
    3a8c:	82 2f       	mov	r24, r18
    3a8e:	76 2f       	mov	r23, r22
    3a90:	6a 2f       	mov	r22, r26
    3a92:	11 24       	eor	r1, r1
    3a94:	9f 57       	subi	r25, 0x7F	; 127
    3a96:	50 40       	sbci	r21, 0x00	; 0
    3a98:	9a f0       	brmi	.+38     	; 0x3ac0 <__mulsf3_pse+0x88>
    3a9a:	f1 f0       	breq	.+60     	; 0x3ad8 <__mulsf3_pse+0xa0>
    3a9c:	88 23       	and	r24, r24
    3a9e:	4a f0       	brmi	.+18     	; 0x3ab2 <__mulsf3_pse+0x7a>
    3aa0:	ee 0f       	add	r30, r30
    3aa2:	ff 1f       	adc	r31, r31
    3aa4:	bb 1f       	adc	r27, r27
    3aa6:	66 1f       	adc	r22, r22
    3aa8:	77 1f       	adc	r23, r23
    3aaa:	88 1f       	adc	r24, r24
    3aac:	91 50       	subi	r25, 0x01	; 1
    3aae:	50 40       	sbci	r21, 0x00	; 0
    3ab0:	a9 f7       	brne	.-22     	; 0x3a9c <__mulsf3_pse+0x64>
    3ab2:	9e 3f       	cpi	r25, 0xFE	; 254
    3ab4:	51 05       	cpc	r21, r1
    3ab6:	80 f0       	brcs	.+32     	; 0x3ad8 <__mulsf3_pse+0xa0>
    3ab8:	0c 94 76 1c 	jmp	0x38ec	; 0x38ec <__fp_inf>
    3abc:	0c 94 00 1d 	jmp	0x3a00	; 0x3a00 <__fp_szero>
    3ac0:	5f 3f       	cpi	r21, 0xFF	; 255
    3ac2:	e4 f3       	brlt	.-8      	; 0x3abc <__mulsf3_pse+0x84>
    3ac4:	98 3e       	cpi	r25, 0xE8	; 232
    3ac6:	d4 f3       	brlt	.-12     	; 0x3abc <__mulsf3_pse+0x84>
    3ac8:	86 95       	lsr	r24
    3aca:	77 95       	ror	r23
    3acc:	67 95       	ror	r22
    3ace:	b7 95       	ror	r27
    3ad0:	f7 95       	ror	r31
    3ad2:	e7 95       	ror	r30
    3ad4:	9f 5f       	subi	r25, 0xFF	; 255
    3ad6:	c1 f7       	brne	.-16     	; 0x3ac8 <__mulsf3_pse+0x90>
    3ad8:	fe 2b       	or	r31, r30
    3ada:	88 0f       	add	r24, r24
    3adc:	91 1d       	adc	r25, r1
    3ade:	96 95       	lsr	r25
    3ae0:	87 95       	ror	r24
    3ae2:	97 f9       	bld	r25, 7
    3ae4:	08 95       	ret

00003ae6 <sin>:
    3ae6:	9f 93       	push	r25
    3ae8:	0e 94 8f 1c 	call	0x391e	; 0x391e <__fp_rempio2>
    3aec:	0f 90       	pop	r0
    3aee:	07 fc       	sbrc	r0, 7
    3af0:	ee 5f       	subi	r30, 0xFE	; 254
    3af2:	0c 94 c9 1c 	jmp	0x3992	; 0x3992 <__fp_sinus>

00003af6 <__fp_mpack>:
    3af6:	9f 3f       	cpi	r25, 0xFF	; 255
    3af8:	31 f0       	breq	.+12     	; 0x3b06 <__fp_mpack_finite+0xc>

00003afa <__fp_mpack_finite>:
    3afa:	91 50       	subi	r25, 0x01	; 1
    3afc:	20 f4       	brcc	.+8      	; 0x3b06 <__fp_mpack_finite+0xc>
    3afe:	87 95       	ror	r24
    3b00:	77 95       	ror	r23
    3b02:	67 95       	ror	r22
    3b04:	b7 95       	ror	r27
    3b06:	88 0f       	add	r24, r24
    3b08:	91 1d       	adc	r25, r1
    3b0a:	96 95       	lsr	r25
    3b0c:	87 95       	ror	r24
    3b0e:	97 f9       	bld	r25, 7
    3b10:	08 95       	ret

00003b12 <__fp_powsodd>:
    3b12:	9f 93       	push	r25
    3b14:	8f 93       	push	r24
    3b16:	7f 93       	push	r23
    3b18:	6f 93       	push	r22
    3b1a:	ff 93       	push	r31
    3b1c:	ef 93       	push	r30
    3b1e:	9b 01       	movw	r18, r22
    3b20:	ac 01       	movw	r20, r24
    3b22:	0e 94 06 1d 	call	0x3a0c	; 0x3a0c <__mulsf3>
    3b26:	ef 91       	pop	r30
    3b28:	ff 91       	pop	r31
    3b2a:	0e 94 9d 1d 	call	0x3b3a	; 0x3b3a <__fp_powser>
    3b2e:	2f 91       	pop	r18
    3b30:	3f 91       	pop	r19
    3b32:	4f 91       	pop	r20
    3b34:	5f 91       	pop	r21
    3b36:	0c 94 06 1d 	jmp	0x3a0c	; 0x3a0c <__mulsf3>

00003b3a <__fp_powser>:
    3b3a:	df 93       	push	r29
    3b3c:	cf 93       	push	r28
    3b3e:	1f 93       	push	r17
    3b40:	0f 93       	push	r16
    3b42:	ff 92       	push	r15
    3b44:	ef 92       	push	r14
    3b46:	df 92       	push	r13
    3b48:	7b 01       	movw	r14, r22
    3b4a:	8c 01       	movw	r16, r24
    3b4c:	68 94       	set
    3b4e:	06 c0       	rjmp	.+12     	; 0x3b5c <__fp_powser+0x22>
    3b50:	da 2e       	mov	r13, r26
    3b52:	ef 01       	movw	r28, r30
    3b54:	0e 94 19 1d 	call	0x3a32	; 0x3a32 <__mulsf3x>
    3b58:	fe 01       	movw	r30, r28
    3b5a:	e8 94       	clt
    3b5c:	a5 91       	lpm	r26, Z+
    3b5e:	25 91       	lpm	r18, Z+
    3b60:	35 91       	lpm	r19, Z+
    3b62:	45 91       	lpm	r20, Z+
    3b64:	55 91       	lpm	r21, Z+
    3b66:	a6 f3       	brts	.-24     	; 0x3b50 <__fp_powser+0x16>
    3b68:	ef 01       	movw	r28, r30
    3b6a:	0e 94 a9 1b 	call	0x3752	; 0x3752 <__addsf3x>
    3b6e:	fe 01       	movw	r30, r28
    3b70:	97 01       	movw	r18, r14
    3b72:	a8 01       	movw	r20, r16
    3b74:	da 94       	dec	r13
    3b76:	69 f7       	brne	.-38     	; 0x3b52 <__fp_powser+0x18>
    3b78:	df 90       	pop	r13
    3b7a:	ef 90       	pop	r14
    3b7c:	ff 90       	pop	r15
    3b7e:	0f 91       	pop	r16
    3b80:	1f 91       	pop	r17
    3b82:	cf 91       	pop	r28
    3b84:	df 91       	pop	r29
    3b86:	08 95       	ret

00003b88 <__divmodhi4>:
    3b88:	97 fb       	bst	r25, 7
    3b8a:	07 2e       	mov	r0, r23
    3b8c:	16 f4       	brtc	.+4      	; 0x3b92 <__divmodhi4+0xa>
    3b8e:	00 94       	com	r0
    3b90:	07 d0       	rcall	.+14     	; 0x3ba0 <__divmodhi4_neg1>
    3b92:	77 fd       	sbrc	r23, 7
    3b94:	09 d0       	rcall	.+18     	; 0x3ba8 <__divmodhi4_neg2>
    3b96:	0e 94 d8 1d 	call	0x3bb0	; 0x3bb0 <__udivmodhi4>
    3b9a:	07 fc       	sbrc	r0, 7
    3b9c:	05 d0       	rcall	.+10     	; 0x3ba8 <__divmodhi4_neg2>
    3b9e:	3e f4       	brtc	.+14     	; 0x3bae <__divmodhi4_exit>

00003ba0 <__divmodhi4_neg1>:
    3ba0:	90 95       	com	r25
    3ba2:	81 95       	neg	r24
    3ba4:	9f 4f       	sbci	r25, 0xFF	; 255
    3ba6:	08 95       	ret

00003ba8 <__divmodhi4_neg2>:
    3ba8:	70 95       	com	r23
    3baa:	61 95       	neg	r22
    3bac:	7f 4f       	sbci	r23, 0xFF	; 255

00003bae <__divmodhi4_exit>:
    3bae:	08 95       	ret

00003bb0 <__udivmodhi4>:
    3bb0:	aa 1b       	sub	r26, r26
    3bb2:	bb 1b       	sub	r27, r27
    3bb4:	51 e1       	ldi	r21, 0x11	; 17
    3bb6:	07 c0       	rjmp	.+14     	; 0x3bc6 <__udivmodhi4_ep>

00003bb8 <__udivmodhi4_loop>:
    3bb8:	aa 1f       	adc	r26, r26
    3bba:	bb 1f       	adc	r27, r27
    3bbc:	a6 17       	cp	r26, r22
    3bbe:	b7 07       	cpc	r27, r23
    3bc0:	10 f0       	brcs	.+4      	; 0x3bc6 <__udivmodhi4_ep>
    3bc2:	a6 1b       	sub	r26, r22
    3bc4:	b7 0b       	sbc	r27, r23

00003bc6 <__udivmodhi4_ep>:
    3bc6:	88 1f       	adc	r24, r24
    3bc8:	99 1f       	adc	r25, r25
    3bca:	5a 95       	dec	r21
    3bcc:	a9 f7       	brne	.-22     	; 0x3bb8 <__udivmodhi4_loop>
    3bce:	80 95       	com	r24
    3bd0:	90 95       	com	r25
    3bd2:	bc 01       	movw	r22, r24
    3bd4:	cd 01       	movw	r24, r26
    3bd6:	08 95       	ret

00003bd8 <__tablejump2__>:
    3bd8:	ee 0f       	add	r30, r30
    3bda:	ff 1f       	adc	r31, r31
    3bdc:	05 90       	lpm	r0, Z+
    3bde:	f4 91       	lpm	r31, Z
    3be0:	e0 2d       	mov	r30, r0
    3be2:	09 94       	ijmp

00003be4 <_exit>:
    3be4:	f8 94       	cli

00003be6 <__stop_program>:
    3be6:	ff cf       	rjmp	.-2      	; 0x3be6 <__stop_program>
